	.file	"main.cpp"
# GNU C++17 (Ubuntu 11.4.0-1ubuntu1~22.04.2) version 11.4.0 (x86_64-linux-gnu)
#	compiled by GNU C version 11.4.0, GMP version 6.2.1, MPFR version 4.1.0, MPC version 1.2.1, isl version isl-0.24-GMP

# GGC heuristics: --param ggc-min-expand=100 --param ggc-min-heapsize=131072
# options passed: -mtune=generic -march=x86-64 -g -O0 -fasynchronous-unwind-tables -fstack-protector-strong -fstack-clash-protection -fcf-protection
	.text
.Ltext0:
	.file 0 "/home/zhuo/git/dp_study" "/home/zhuo/git/dp_study/src/main.cpp"
	.section	.text._ZnwmPv,"axG",@progbits,_ZnwmPv,comdat
	.weak	_ZnwmPv
	.type	_ZnwmPv, @function
_ZnwmPv:
.LFB38:
	.file 1 "/usr/include/c++/11/new"
	.loc 1 175 1
	.cfi_startproc
	endbr64	
	pushq	%rbp	#
	.cfi_def_cfa_offset 16
	.cfi_offset 6, -16
	movq	%rsp, %rbp	#,
	.cfi_def_cfa_register 6
	movq	%rdi, -8(%rbp)	# D.3591, D.3591
	movq	%rsi, -16(%rbp)	# __p, __p
# /usr/include/c++/11/new:175: { return __p; }
	.loc 1 175 10
	movq	-16(%rbp), %rax	# __p, _2
# /usr/include/c++/11/new:175: { return __p; }
	.loc 1 175 15
	popq	%rbp	#
	.cfi_def_cfa 7, 8
	ret	
	.cfi_endproc
.LFE38:
	.size	_ZnwmPv, .-_ZnwmPv
	.section	.text._ZSt17__size_to_integerm,"axG",@progbits,_ZSt17__size_to_integerm,comdat
	.weak	_ZSt17__size_to_integerm
	.type	_ZSt17__size_to_integerm, @function
_ZSt17__size_to_integerm:
.LFB371:
	.file 2 "/usr/include/c++/11/bits/stl_algobase.h"
	.loc 2 1010 40
	.cfi_startproc
	endbr64	
	pushq	%rbp	#
	.cfi_def_cfa_offset 16
	.cfi_offset 6, -16
	movq	%rsp, %rbp	#,
	.cfi_def_cfa_register 6
	movq	%rdi, -8(%rbp)	# __n, __n
# /usr/include/c++/11/bits/stl_algobase.h:1010:   __size_to_integer(unsigned long __n) { return __n; }
	.loc 2 1010 49
	movq	-8(%rbp), %rax	# __n, _2
# /usr/include/c++/11/bits/stl_algobase.h:1010:   __size_to_integer(unsigned long __n) { return __n; }
	.loc 2 1010 54
	popq	%rbp	#
	.cfi_def_cfa 7, 8
	ret	
	.cfi_endproc
.LFE371:
	.size	_ZSt17__size_to_integerm, .-_ZSt17__size_to_integerm
	.local	_ZStL8__ioinit
	.comm	_ZStL8__ioinit,1,1
	.section	.text._ZSt3minImERKT_S2_S2_,"axG",@progbits,_ZSt3minImERKT_S2_S2_,comdat
	.weak	_ZSt3minImERKT_S2_S2_
	.type	_ZSt3minImERKT_S2_S2_, @function
_ZSt3minImERKT_S2_S2_:
.LFB2704:
	.loc 2 230 5
	.cfi_startproc
	endbr64	
	pushq	%rbp	#
	.cfi_def_cfa_offset 16
	.cfi_offset 6, -16
	movq	%rsp, %rbp	#,
	.cfi_def_cfa_register 6
	movq	%rdi, -8(%rbp)	# __a, __a
	movq	%rsi, -16(%rbp)	# __b, __b
# /usr/include/c++/11/bits/stl_algobase.h:235:       if (__b < __a)
	.loc 2 235 15
	movq	-16(%rbp), %rax	# __b, tmp86
	movq	(%rax), %rdx	# *__b_5(D), _1
	movq	-8(%rbp), %rax	# __a, tmp87
	movq	(%rax), %rax	# *__a_6(D), _2
# /usr/include/c++/11/bits/stl_algobase.h:235:       if (__b < __a)
	.loc 2 235 7
	cmpq	%rax, %rdx	# _2, _1
	jnb	.L6	#,
# /usr/include/c++/11/bits/stl_algobase.h:236: 	return __b;
	.loc 2 236 9
	movq	-16(%rbp), %rax	# __b, _3
	jmp	.L7	#
.L6:
# /usr/include/c++/11/bits/stl_algobase.h:237:       return __a;
	.loc 2 237 14
	movq	-8(%rbp), %rax	# __a, _3
.L7:
# /usr/include/c++/11/bits/stl_algobase.h:238:     }
	.loc 2 238 5
	popq	%rbp	#
	.cfi_def_cfa 7, 8
	ret	
	.cfi_endproc
.LFE2704:
	.size	_ZSt3minImERKT_S2_S2_, .-_ZSt3minImERKT_S2_S2_
	.section	.rodata
	.type	_ZN6__pstl9execution2v1L3seqE, @object
	.size	_ZN6__pstl9execution2v1L3seqE, 1
_ZN6__pstl9execution2v1L3seqE:
	.zero	1
	.type	_ZN6__pstl9execution2v1L3parE, @object
	.size	_ZN6__pstl9execution2v1L3parE, 1
_ZN6__pstl9execution2v1L3parE:
	.zero	1
	.type	_ZN6__pstl9execution2v1L9par_unseqE, @object
	.size	_ZN6__pstl9execution2v1L9par_unseqE, 1
_ZN6__pstl9execution2v1L9par_unseqE:
	.zero	1
	.type	_ZN6__pstl9execution2v1L5unseqE, @object
	.size	_ZN6__pstl9execution2v1L5unseqE, 1
_ZN6__pstl9execution2v1L5unseqE:
	.zero	1
	.section	.text._ZNKSt6chrono8durationIlSt5ratioILl1ELl1000000000EEE5countEv,"axG",@progbits,_ZNKSt6chrono8durationIlSt5ratioILl1ELl1000000000EEE5countEv,comdat
	.align 2
	.weak	_ZNKSt6chrono8durationIlSt5ratioILl1ELl1000000000EEE5countEv
	.type	_ZNKSt6chrono8durationIlSt5ratioILl1ELl1000000000EEE5countEv, @function
_ZNKSt6chrono8durationIlSt5ratioILl1ELl1000000000EEE5countEv:
.LFB3443:
	.file 3 "/usr/include/c++/11/chrono"
	.loc 3 537 2
	.cfi_startproc
	endbr64	
	pushq	%rbp	#
	.cfi_def_cfa_offset 16
	.cfi_offset 6, -16
	movq	%rsp, %rbp	#,
	.cfi_def_cfa_register 6
	movq	%rdi, -8(%rbp)	# this, this
# /usr/include/c++/11/chrono:538: 	{ return __r; }
	.loc 3 538 11
	movq	-8(%rbp), %rax	# this, tmp84
	movq	(%rax), %rax	# this_2(D)->__r, _3
# /usr/include/c++/11/chrono:538: 	{ return __r; }
	.loc 3 538 16
	popq	%rbp	#
	.cfi_def_cfa 7, 8
	ret	
	.cfi_endproc
.LFE3443:
	.size	_ZNKSt6chrono8durationIlSt5ratioILl1ELl1000000000EEE5countEv, .-_ZNKSt6chrono8durationIlSt5ratioILl1ELl1000000000EEE5countEv
	.section	.text._ZNSt6chrono8durationIlSt5ratioILl1ELl1000000000EEEC1IlvEERKT_,"axG",@progbits,_ZNSt6chrono8durationIlSt5ratioILl1ELl1000000000EEEC1IlvEERKT_,comdat
	.align 2
	.weak	_ZNSt6chrono8durationIlSt5ratioILl1ELl1000000000EEEC1IlvEERKT_
	.type	_ZNSt6chrono8durationIlSt5ratioILl1ELl1000000000EEEC1IlvEERKT_, @function
_ZNSt6chrono8durationIlSt5ratioILl1ELl1000000000EEEC1IlvEERKT_:
.LFB3448:
	.loc 3 521 23
	.cfi_startproc
	endbr64	
	pushq	%rbp	#
	.cfi_def_cfa_offset 16
	.cfi_offset 6, -16
	movq	%rsp, %rbp	#,
	.cfi_def_cfa_register 6
	movq	%rdi, -8(%rbp)	# this, this
	movq	%rsi, -16(%rbp)	# __rep, __rep
.LBB2:
# /usr/include/c++/11/chrono:522: 	  : __r(static_cast<rep>(__rep)) { }
	.loc 3 522 10
	movq	-16(%rbp), %rax	# __rep, tmp83
	movq	(%rax), %rdx	# *__rep_5(D), _1
# /usr/include/c++/11/chrono:522: 	  : __r(static_cast<rep>(__rep)) { }
	.loc 3 522 6
	movq	-8(%rbp), %rax	# this, tmp84
	movq	%rdx, (%rax)	# _1, this_3(D)->__r
.LBE2:
# /usr/include/c++/11/chrono:522: 	  : __r(static_cast<rep>(__rep)) { }
	.loc 3 522 37
	nop	
	popq	%rbp	#
	.cfi_def_cfa 7, 8
	ret	
	.cfi_endproc
.LFE3448:
	.size	_ZNSt6chrono8durationIlSt5ratioILl1ELl1000000000EEEC1IlvEERKT_, .-_ZNSt6chrono8durationIlSt5ratioILl1ELl1000000000EEEC1IlvEERKT_
	.text
	.globl	_Z9fibonaccii
	.type	_Z9fibonaccii, @function
_Z9fibonaccii:
.LFB3473:
	.file 4 "/home/zhuo/git/dp_study/src/main.cpp"
	.loc 4 8 22
	.cfi_startproc
	.cfi_personality 0x9b,DW.ref.__gxx_personality_v0
	.cfi_lsda 0x1b,.LLSDA3473
	endbr64	
	pushq	%rbp	#
	.cfi_def_cfa_offset 16
	.cfi_offset 6, -16
	movq	%rsp, %rbp	#,
	.cfi_def_cfa_register 6
	pushq	%rbx	#
	subq	$72, %rsp	#,
	.cfi_offset 3, -24
	movl	%edi, -68(%rbp)	# n, n
# /home/zhuo/git/dp_study/src/main.cpp:8: int fibonacci(int n) {
	.loc 4 8 22
	movq	%fs:40, %rax	# MEM[(<address-space-1> long unsigned int *)40B], tmp122
	movq	%rax, -24(%rbp)	# tmp122, D.88387
	xorl	%eax, %eax	# tmp122
# /home/zhuo/git/dp_study/src/main.cpp:9:     if (n <= 1) return n;
	.loc 4 9 5
	cmpl	$1, -68(%rbp)	#, n
	jg	.L12	#,
# /home/zhuo/git/dp_study/src/main.cpp:9:     if (n <= 1) return n;
	.loc 4 9 24 discriminator 1
	movl	-68(%rbp), %ebx	# n, _19
	jmp	.L16	#
.L12:
# /home/zhuo/git/dp_study/src/main.cpp:10:     std::vector<int> dp(n + 1);
	.loc 4 10 30
	leaq	-53(%rbp), %rax	#, tmp102
	movq	%rax, %rdi	# tmp102,
	call	_ZNSaIiEC1Ev	#
# /home/zhuo/git/dp_study/src/main.cpp:10:     std::vector<int> dp(n + 1);
	.loc 4 10 27
	movl	-68(%rbp), %eax	# n, tmp103
	addl	$1, %eax	#, _1
# /home/zhuo/git/dp_study/src/main.cpp:10:     std::vector<int> dp(n + 1);
	.loc 4 10 30
	movslq	%eax, %rcx	# _1, _2
	leaq	-53(%rbp), %rdx	#, tmp104
	leaq	-48(%rbp), %rax	#, tmp105
	movq	%rcx, %rsi	# _2,
	movq	%rax, %rdi	# tmp105,
.LEHB0:
	call	_ZNSt6vectorIiSaIiEEC1EmRKS0_	#
.LEHE0:
	leaq	-53(%rbp), %rax	#, tmp106
	movq	%rax, %rdi	# tmp106,
	call	_ZNSaIiED1Ev	#
# /home/zhuo/git/dp_study/src/main.cpp:11:     dp[0] = 0;
	.loc 4 11 9
	leaq	-48(%rbp), %rax	#, tmp107
	movl	$0, %esi	#,
	movq	%rax, %rdi	# tmp107,
	call	_ZNSt6vectorIiSaIiEEixEm	#
# /home/zhuo/git/dp_study/src/main.cpp:11:     dp[0] = 0;
	.loc 4 11 11
	movl	$0, (%rax)	#, *_3
# /home/zhuo/git/dp_study/src/main.cpp:12:     dp[1] = 1;
	.loc 4 12 9
	leaq	-48(%rbp), %rax	#, tmp108
	movl	$1, %esi	#,
	movq	%rax, %rdi	# tmp108,
	call	_ZNSt6vectorIiSaIiEEixEm	#
# /home/zhuo/git/dp_study/src/main.cpp:12:     dp[1] = 1;
	.loc 4 12 11
	movl	$1, (%rax)	#, *_4
.LBB3:
# /home/zhuo/git/dp_study/src/main.cpp:13:     for (int i = 2; i <= n; ++i) {
	.loc 4 13 14
	movl	$2, -52(%rbp)	#, i
# /home/zhuo/git/dp_study/src/main.cpp:13:     for (int i = 2; i <= n; ++i) {
	.loc 4 13 5
	jmp	.L14	#
.L15:
# /home/zhuo/git/dp_study/src/main.cpp:14:         dp[i] = dp[i - 1] + dp[i - 2];
	.loc 4 14 22 discriminator 3
	movl	-52(%rbp), %eax	# i, tmp109
	subl	$1, %eax	#, _5
# /home/zhuo/git/dp_study/src/main.cpp:14:         dp[i] = dp[i - 1] + dp[i - 2];
	.loc 4 14 25 discriminator 3
	movslq	%eax, %rdx	# _5, _6
	leaq	-48(%rbp), %rax	#, tmp110
	movq	%rdx, %rsi	# _6,
	movq	%rax, %rdi	# tmp110,
	call	_ZNSt6vectorIiSaIiEEixEm	#
# /home/zhuo/git/dp_study/src/main.cpp:14:         dp[i] = dp[i - 1] + dp[i - 2];
	.loc 4 14 27 discriminator 3
	movl	(%rax), %ebx	# *_7, _8
# /home/zhuo/git/dp_study/src/main.cpp:14:         dp[i] = dp[i - 1] + dp[i - 2];
	.loc 4 14 34 discriminator 3
	movl	-52(%rbp), %eax	# i, tmp111
	subl	$2, %eax	#, _9
# /home/zhuo/git/dp_study/src/main.cpp:14:         dp[i] = dp[i - 1] + dp[i - 2];
	.loc 4 14 37 discriminator 3
	movslq	%eax, %rdx	# _9, _10
	leaq	-48(%rbp), %rax	#, tmp112
	movq	%rdx, %rsi	# _10,
	movq	%rax, %rdi	# tmp112,
	call	_ZNSt6vectorIiSaIiEEixEm	#
# /home/zhuo/git/dp_study/src/main.cpp:14:         dp[i] = dp[i - 1] + dp[i - 2];
	.loc 4 14 27 discriminator 3
	movl	(%rax), %eax	# *_11, _12
	addl	%eax, %ebx	# _12, _13
# /home/zhuo/git/dp_study/src/main.cpp:14:         dp[i] = dp[i - 1] + dp[i - 2];
	.loc 4 14 13 discriminator 3
	movl	-52(%rbp), %eax	# i, tmp113
	movslq	%eax, %rdx	# tmp113, _14
	leaq	-48(%rbp), %rax	#, tmp114
	movq	%rdx, %rsi	# _14,
	movq	%rax, %rdi	# tmp114,
	call	_ZNSt6vectorIiSaIiEEixEm	#
# /home/zhuo/git/dp_study/src/main.cpp:14:         dp[i] = dp[i - 1] + dp[i - 2];
	.loc 4 14 15 discriminator 3
	movl	%ebx, (%rax)	# _13, *_15
# /home/zhuo/git/dp_study/src/main.cpp:13:     for (int i = 2; i <= n; ++i) {
	.loc 4 13 5 discriminator 3
	addl	$1, -52(%rbp)	#, i
.L14:
# /home/zhuo/git/dp_study/src/main.cpp:13:     for (int i = 2; i <= n; ++i) {
	.loc 4 13 23 discriminator 1
	movl	-52(%rbp), %eax	# i, tmp115
	cmpl	-68(%rbp), %eax	# n, tmp115
	jle	.L15	#,
.LBE3:
# /home/zhuo/git/dp_study/src/main.cpp:16:     return dp[n];
	.loc 4 16 16
	movl	-68(%rbp), %eax	# n, tmp116
	movslq	%eax, %rdx	# tmp116, _16
	leaq	-48(%rbp), %rax	#, tmp117
	movq	%rdx, %rsi	# _16,
	movq	%rax, %rdi	# tmp117,
	call	_ZNSt6vectorIiSaIiEEixEm	#
	movl	(%rax), %ebx	# *_17, _19
# /home/zhuo/git/dp_study/src/main.cpp:17: }
	.loc 4 17 1
	leaq	-48(%rbp), %rax	#, tmp118
	movq	%rax, %rdi	# tmp118,
	call	_ZNSt6vectorIiSaIiEED1Ev	#
.L16:
# /home/zhuo/git/dp_study/src/main.cpp:17: }
	.loc 4 17 1 is_stmt 0 discriminator 1
	movl	%ebx, %eax	# _19, <retval>
	movq	-24(%rbp), %rdx	# D.88387, tmp123
	subq	%fs:40, %rdx	# MEM[(<address-space-1> long unsigned int *)40B], tmp123
	je	.L18	#,
	jmp	.L20	#
.L19:
	endbr64	
	movq	%rax, %rbx	#, tmp121
	leaq	-53(%rbp), %rax	#, tmp120
	movq	%rax, %rdi	# tmp120,
	call	_ZNSaIiED1Ev	#
	movq	%rbx, %rax	# tmp121, D.88386
	movq	%rax, %rdi	# D.88386,
.LEHB1:
	call	_Unwind_Resume@PLT	#
.LEHE1:
.L20:
# /home/zhuo/git/dp_study/src/main.cpp:17: }
	.loc 4 17 1
	call	__stack_chk_fail@PLT	#
.L18:
	movq	-8(%rbp), %rbx	#,
	leave	
	.cfi_def_cfa 7, 8
	ret	
	.cfi_endproc
.LFE3473:
	.globl	__gxx_personality_v0
	.section	.gcc_except_table,"a",@progbits
.LLSDA3473:
	.byte	0xff
	.byte	0xff
	.byte	0x1
	.uleb128 .LLSDACSE3473-.LLSDACSB3473
.LLSDACSB3473:
	.uleb128 .LEHB0-.LFB3473
	.uleb128 .LEHE0-.LEHB0
	.uleb128 .L19-.LFB3473
	.uleb128 0
	.uleb128 .LEHB1-.LFB3473
	.uleb128 .LEHE1-.LEHB1
	.uleb128 0
	.uleb128 0
.LLSDACSE3473:
	.text
	.size	_Z9fibonaccii, .-_Z9fibonaccii
	.globl	_Z6helperRSt6vectorIiSaIiEEi
	.type	_Z6helperRSt6vectorIiSaIiEEi, @function
_Z6helperRSt6vectorIiSaIiEEi:
.LFB3474:
	.loc 4 20 41 is_stmt 1
	.cfi_startproc
	endbr64	
	pushq	%rbp	#
	.cfi_def_cfa_offset 16
	.cfi_offset 6, -16
	movq	%rsp, %rbp	#,
	.cfi_def_cfa_register 6
	pushq	%rbx	#
	subq	$24, %rsp	#,
	.cfi_offset 3, -24
	movq	%rdi, -24(%rbp)	# memo, memo
	movl	%esi, -28(%rbp)	# N, N
# /home/zhuo/git/dp_study/src/main.cpp:21:     if(N==1 || N==2) return 1;
	.loc 4 21 5
	cmpl	$1, -28(%rbp)	#, N
	je	.L22	#,
# /home/zhuo/git/dp_study/src/main.cpp:21:     if(N==1 || N==2) return 1;
	.loc 4 21 13 discriminator 2
	cmpl	$2, -28(%rbp)	#, N
	jne	.L23	#,
.L22:
# /home/zhuo/git/dp_study/src/main.cpp:21:     if(N==1 || N==2) return 1;
	.loc 4 21 29 discriminator 3
	movl	$1, %eax	#, _15
	jmp	.L24	#
.L23:
# /home/zhuo/git/dp_study/src/main.cpp:22:     if(memo[N]!=0) return memo[N];
	.loc 4 22 14
	movl	-28(%rbp), %eax	# N, tmp99
	movslq	%eax, %rdx	# tmp99, _1
	movq	-24(%rbp), %rax	# memo, tmp100
	movq	%rdx, %rsi	# _1,
	movq	%rax, %rdi	# tmp100,
	call	_ZNSt6vectorIiSaIiEEixEm	#
# /home/zhuo/git/dp_study/src/main.cpp:22:     if(memo[N]!=0) return memo[N];
	.loc 4 22 15
	movl	(%rax), %eax	# *_2, _3
	testl	%eax, %eax	# _3
	setne	%al	#, retval.4_21
# /home/zhuo/git/dp_study/src/main.cpp:22:     if(memo[N]!=0) return memo[N];
	.loc 4 22 5
	testb	%al, %al	# retval.4_21
	je	.L25	#,
# /home/zhuo/git/dp_study/src/main.cpp:22:     if(memo[N]!=0) return memo[N];
	.loc 4 22 33 discriminator 1
	movl	-28(%rbp), %eax	# N, tmp101
	movslq	%eax, %rdx	# tmp101, _4
	movq	-24(%rbp), %rax	# memo, tmp102
	movq	%rdx, %rsi	# _4,
	movq	%rax, %rdi	# tmp102,
	call	_ZNSt6vectorIiSaIiEEixEm	#
	movl	(%rax), %eax	# *_5, _15
	jmp	.L24	#
.L25:
# /home/zhuo/git/dp_study/src/main.cpp:23:     memo[N] = helper(memo,N-1) + helper(memo,N-2);
	.loc 4 23 21
	movl	-28(%rbp), %eax	# N, tmp103
	leal	-1(%rax), %edx	#, _6
	movq	-24(%rbp), %rax	# memo, tmp104
	movl	%edx, %esi	# _6,
	movq	%rax, %rdi	# tmp104,
	call	_Z6helperRSt6vectorIiSaIiEEi	#
	movl	%eax, %ebx	#, _7
# /home/zhuo/git/dp_study/src/main.cpp:23:     memo[N] = helper(memo,N-1) + helper(memo,N-2);
	.loc 4 23 40
	movl	-28(%rbp), %eax	# N, tmp105
	leal	-2(%rax), %edx	#, _8
	movq	-24(%rbp), %rax	# memo, tmp106
	movl	%edx, %esi	# _8,
	movq	%rax, %rdi	# tmp106,
	call	_Z6helperRSt6vectorIiSaIiEEi	#
# /home/zhuo/git/dp_study/src/main.cpp:23:     memo[N] = helper(memo,N-1) + helper(memo,N-2);
	.loc 4 23 32
	addl	%eax, %ebx	# _9, _10
# /home/zhuo/git/dp_study/src/main.cpp:23:     memo[N] = helper(memo,N-1) + helper(memo,N-2);
	.loc 4 23 11
	movl	-28(%rbp), %eax	# N, tmp107
	movslq	%eax, %rdx	# tmp107, _11
	movq	-24(%rbp), %rax	# memo, tmp108
	movq	%rdx, %rsi	# _11,
	movq	%rax, %rdi	# tmp108,
	call	_ZNSt6vectorIiSaIiEEixEm	#
# /home/zhuo/git/dp_study/src/main.cpp:23:     memo[N] = helper(memo,N-1) + helper(memo,N-2);
	.loc 4 23 13
	movl	%ebx, (%rax)	# _10, *_12
# /home/zhuo/git/dp_study/src/main.cpp:24:     return memo[N];
	.loc 4 24 18
	movl	-28(%rbp), %eax	# N, tmp109
	movslq	%eax, %rdx	# tmp109, _13
	movq	-24(%rbp), %rax	# memo, tmp110
	movq	%rdx, %rsi	# _13,
	movq	%rax, %rdi	# tmp110,
	call	_ZNSt6vectorIiSaIiEEixEm	#
	movl	(%rax), %eax	# *_14, _15
.L24:
# /home/zhuo/git/dp_study/src/main.cpp:25: }
	.loc 4 25 1
	movq	-8(%rbp), %rbx	#,
	leave	
	.cfi_def_cfa 7, 8
	ret	
	.cfi_endproc
.LFE3474:
	.size	_Z6helperRSt6vectorIiSaIiEEi, .-_Z6helperRSt6vectorIiSaIiEEi
	.globl	_Z3fibi
	.type	_Z3fibi, @function
_Z3fibi:
.LFB3475:
	.loc 4 27 15
	.cfi_startproc
	.cfi_personality 0x9b,DW.ref.__gxx_personality_v0
	.cfi_lsda 0x1b,.LLSDA3475
	endbr64	
	pushq	%rbp	#
	.cfi_def_cfa_offset 16
	.cfi_offset 6, -16
	movq	%rsp, %rbp	#,
	.cfi_def_cfa_register 6
	pushq	%rbx	#
	subq	$72, %rsp	#,
	.cfi_offset 3, -24
	movl	%edi, -68(%rbp)	# N, N
# /home/zhuo/git/dp_study/src/main.cpp:27: int fib(int N){
	.loc 4 27 15
	movq	%fs:40, %rax	# MEM[(<address-space-1> long unsigned int *)40B], tmp102
	movq	%rax, -24(%rbp)	# tmp102, D.88391
	xorl	%eax, %eax	# tmp102
# /home/zhuo/git/dp_study/src/main.cpp:28:     if(N<1) return 0;
	.loc 4 28 5
	cmpl	$0, -68(%rbp)	#, N
	jg	.L27	#,
# /home/zhuo/git/dp_study/src/main.cpp:28:     if(N<1) return 0;
	.loc 4 28 20 discriminator 1
	movl	$0, %ebx	#, _3
	jmp	.L29	#
.L27:
# /home/zhuo/git/dp_study/src/main.cpp:29:     std::vector<int> memo(N+1,0);
	.loc 4 29 32
	leaq	-53(%rbp), %rax	#, tmp88
	movq	%rax, %rdi	# tmp88,
	call	_ZNSaIiEC1Ev	#
# /home/zhuo/git/dp_study/src/main.cpp:29:     std::vector<int> memo(N+1,0);
	.loc 4 29 31
	movl	$0, -52(%rbp)	#, D.81965
# /home/zhuo/git/dp_study/src/main.cpp:29:     std::vector<int> memo(N+1,0);
	.loc 4 29 28
	movl	-68(%rbp), %eax	# N, tmp89
	addl	$1, %eax	#, _1
# /home/zhuo/git/dp_study/src/main.cpp:29:     std::vector<int> memo(N+1,0);
	.loc 4 29 32
	movslq	%eax, %rsi	# _1, _2
	leaq	-53(%rbp), %rcx	#, tmp90
	leaq	-52(%rbp), %rdx	#, tmp91
	leaq	-48(%rbp), %rax	#, tmp92
	movq	%rax, %rdi	# tmp92,
.LEHB2:
	call	_ZNSt6vectorIiSaIiEEC1EmRKiRKS0_	#
.LEHE2:
	leaq	-53(%rbp), %rax	#, tmp93
	movq	%rax, %rdi	# tmp93,
	call	_ZNSaIiED1Ev	#
# /home/zhuo/git/dp_study/src/main.cpp:30:     return helper(memo,N);
	.loc 4 30 18 discriminator 1
	movl	-68(%rbp), %edx	# N, tmp94
	leaq	-48(%rbp), %rax	#, tmp95
	movl	%edx, %esi	# tmp94,
	movq	%rax, %rdi	# tmp95,
.LEHB3:
	call	_Z6helperRSt6vectorIiSaIiEEi	#
.LEHE3:
	movl	%eax, %ebx	#, _3
# /home/zhuo/git/dp_study/src/main.cpp:30:     return helper(memo,N);
	.loc 4 30 25 discriminator 1
	nop	
# /home/zhuo/git/dp_study/src/main.cpp:31: }
	.loc 4 31 1 discriminator 1
	leaq	-48(%rbp), %rax	#, tmp96
	movq	%rax, %rdi	# tmp96,
	call	_ZNSt6vectorIiSaIiEED1Ev	#
.L29:
	movl	%ebx, %eax	# _3, <retval>
	movq	-24(%rbp), %rdx	# D.88391, tmp103
	subq	%fs:40, %rdx	# MEM[(<address-space-1> long unsigned int *)40B], tmp103
	je	.L32	#,
	jmp	.L35	#
.L33:
	endbr64	
	movq	%rax, %rbx	#, tmp99
	leaq	-53(%rbp), %rax	#, tmp98
	movq	%rax, %rdi	# tmp98,
	call	_ZNSaIiED1Ev	#
	movq	%rbx, %rax	# tmp99, D.88389
	movq	%rax, %rdi	# D.88389,
.LEHB4:
	call	_Unwind_Resume@PLT	#
.L34:
	endbr64	
# /home/zhuo/git/dp_study/src/main.cpp:31: }
	.loc 4 31 1 is_stmt 0
	movq	%rax, %rbx	#, tmp101
	leaq	-48(%rbp), %rax	#, tmp100
	movq	%rax, %rdi	# tmp100,
	call	_ZNSt6vectorIiSaIiEED1Ev	#
	movq	%rbx, %rax	# tmp101, D.88390
	movq	%rax, %rdi	# D.88390,
	call	_Unwind_Resume@PLT	#
.LEHE4:
.L35:
	call	__stack_chk_fail@PLT	#
.L32:
	movq	-8(%rbp), %rbx	#,
	leave	
	.cfi_def_cfa 7, 8
	ret	
	.cfi_endproc
.LFE3475:
	.section	.gcc_except_table
.LLSDA3475:
	.byte	0xff
	.byte	0xff
	.byte	0x1
	.uleb128 .LLSDACSE3475-.LLSDACSB3475
.LLSDACSB3475:
	.uleb128 .LEHB2-.LFB3475
	.uleb128 .LEHE2-.LEHB2
	.uleb128 .L33-.LFB3475
	.uleb128 0
	.uleb128 .LEHB3-.LFB3475
	.uleb128 .LEHE3-.LEHB3
	.uleb128 .L34-.LFB3475
	.uleb128 0
	.uleb128 .LEHB4-.LFB3475
	.uleb128 .LEHE4-.LEHB4
	.uleb128 0
	.uleb128 0
.LLSDACSE3475:
	.text
	.size	_Z3fibi, .-_Z3fibi
	.globl	_Z11climbStairsi
	.type	_Z11climbStairsi, @function
_Z11climbStairsi:
.LFB3476:
	.loc 4 37 24 is_stmt 1
	.cfi_startproc
	.cfi_personality 0x9b,DW.ref.__gxx_personality_v0
	.cfi_lsda 0x1b,.LLSDA3476
	endbr64	
	pushq	%rbp	#
	.cfi_def_cfa_offset 16
	.cfi_offset 6, -16
	movq	%rsp, %rbp	#,
	.cfi_def_cfa_register 6
	pushq	%rbx	#
	subq	$72, %rsp	#,
	.cfi_offset 3, -24
	movl	%edi, -68(%rbp)	# n, n
# /home/zhuo/git/dp_study/src/main.cpp:37: int climbStairs(int n) {
	.loc 4 37 24
	movq	%fs:40, %rax	# MEM[(<address-space-1> long unsigned int *)40B], tmp122
	movq	%rax, -24(%rbp)	# tmp122, D.88393
	xorl	%eax, %eax	# tmp122
# /home/zhuo/git/dp_study/src/main.cpp:38:     if (n <= 2) return n;
	.loc 4 38 5
	cmpl	$2, -68(%rbp)	#, n
	jg	.L37	#,
# /home/zhuo/git/dp_study/src/main.cpp:38:     if (n <= 2) return n;
	.loc 4 38 24 discriminator 1
	movl	-68(%rbp), %ebx	# n, _19
	jmp	.L41	#
.L37:
# /home/zhuo/git/dp_study/src/main.cpp:39:     std::vector<int> dp(n + 1);
	.loc 4 39 30
	leaq	-53(%rbp), %rax	#, tmp102
	movq	%rax, %rdi	# tmp102,
	call	_ZNSaIiEC1Ev	#
# /home/zhuo/git/dp_study/src/main.cpp:39:     std::vector<int> dp(n + 1);
	.loc 4 39 27
	movl	-68(%rbp), %eax	# n, tmp103
	addl	$1, %eax	#, _1
# /home/zhuo/git/dp_study/src/main.cpp:39:     std::vector<int> dp(n + 1);
	.loc 4 39 30
	movslq	%eax, %rcx	# _1, _2
	leaq	-53(%rbp), %rdx	#, tmp104
	leaq	-48(%rbp), %rax	#, tmp105
	movq	%rcx, %rsi	# _2,
	movq	%rax, %rdi	# tmp105,
.LEHB5:
	call	_ZNSt6vectorIiSaIiEEC1EmRKS0_	#
.LEHE5:
	leaq	-53(%rbp), %rax	#, tmp106
	movq	%rax, %rdi	# tmp106,
	call	_ZNSaIiED1Ev	#
# /home/zhuo/git/dp_study/src/main.cpp:40:     dp[1] = 1;
	.loc 4 40 9
	leaq	-48(%rbp), %rax	#, tmp107
	movl	$1, %esi	#,
	movq	%rax, %rdi	# tmp107,
	call	_ZNSt6vectorIiSaIiEEixEm	#
# /home/zhuo/git/dp_study/src/main.cpp:40:     dp[1] = 1;
	.loc 4 40 11
	movl	$1, (%rax)	#, *_3
# /home/zhuo/git/dp_study/src/main.cpp:41:     dp[2] = 2;
	.loc 4 41 9
	leaq	-48(%rbp), %rax	#, tmp108
	movl	$2, %esi	#,
	movq	%rax, %rdi	# tmp108,
	call	_ZNSt6vectorIiSaIiEEixEm	#
# /home/zhuo/git/dp_study/src/main.cpp:41:     dp[2] = 2;
	.loc 4 41 11
	movl	$2, (%rax)	#, *_4
.LBB4:
# /home/zhuo/git/dp_study/src/main.cpp:42:     for (int i = 3; i <= n; ++i) {
	.loc 4 42 14
	movl	$3, -52(%rbp)	#, i
# /home/zhuo/git/dp_study/src/main.cpp:42:     for (int i = 3; i <= n; ++i) {
	.loc 4 42 5
	jmp	.L39	#
.L40:
# /home/zhuo/git/dp_study/src/main.cpp:43:         dp[i] = dp[i - 1] + dp[i - 2];
	.loc 4 43 22 discriminator 3
	movl	-52(%rbp), %eax	# i, tmp109
	subl	$1, %eax	#, _5
# /home/zhuo/git/dp_study/src/main.cpp:43:         dp[i] = dp[i - 1] + dp[i - 2];
	.loc 4 43 25 discriminator 3
	movslq	%eax, %rdx	# _5, _6
	leaq	-48(%rbp), %rax	#, tmp110
	movq	%rdx, %rsi	# _6,
	movq	%rax, %rdi	# tmp110,
	call	_ZNSt6vectorIiSaIiEEixEm	#
# /home/zhuo/git/dp_study/src/main.cpp:43:         dp[i] = dp[i - 1] + dp[i - 2];
	.loc 4 43 27 discriminator 3
	movl	(%rax), %ebx	# *_7, _8
# /home/zhuo/git/dp_study/src/main.cpp:43:         dp[i] = dp[i - 1] + dp[i - 2];
	.loc 4 43 34 discriminator 3
	movl	-52(%rbp), %eax	# i, tmp111
	subl	$2, %eax	#, _9
# /home/zhuo/git/dp_study/src/main.cpp:43:         dp[i] = dp[i - 1] + dp[i - 2];
	.loc 4 43 37 discriminator 3
	movslq	%eax, %rdx	# _9, _10
	leaq	-48(%rbp), %rax	#, tmp112
	movq	%rdx, %rsi	# _10,
	movq	%rax, %rdi	# tmp112,
	call	_ZNSt6vectorIiSaIiEEixEm	#
# /home/zhuo/git/dp_study/src/main.cpp:43:         dp[i] = dp[i - 1] + dp[i - 2];
	.loc 4 43 27 discriminator 3
	movl	(%rax), %eax	# *_11, _12
	addl	%eax, %ebx	# _12, _13
# /home/zhuo/git/dp_study/src/main.cpp:43:         dp[i] = dp[i - 1] + dp[i - 2];
	.loc 4 43 13 discriminator 3
	movl	-52(%rbp), %eax	# i, tmp113
	movslq	%eax, %rdx	# tmp113, _14
	leaq	-48(%rbp), %rax	#, tmp114
	movq	%rdx, %rsi	# _14,
	movq	%rax, %rdi	# tmp114,
	call	_ZNSt6vectorIiSaIiEEixEm	#
# /home/zhuo/git/dp_study/src/main.cpp:43:         dp[i] = dp[i - 1] + dp[i - 2];
	.loc 4 43 15 discriminator 3
	movl	%ebx, (%rax)	# _13, *_15
# /home/zhuo/git/dp_study/src/main.cpp:42:     for (int i = 3; i <= n; ++i) {
	.loc 4 42 5 discriminator 3
	addl	$1, -52(%rbp)	#, i
.L39:
# /home/zhuo/git/dp_study/src/main.cpp:42:     for (int i = 3; i <= n; ++i) {
	.loc 4 42 23 discriminator 1
	movl	-52(%rbp), %eax	# i, tmp115
	cmpl	-68(%rbp), %eax	# n, tmp115
	jle	.L40	#,
.LBE4:
# /home/zhuo/git/dp_study/src/main.cpp:45:     return dp[n];
	.loc 4 45 16
	movl	-68(%rbp), %eax	# n, tmp116
	movslq	%eax, %rdx	# tmp116, _16
	leaq	-48(%rbp), %rax	#, tmp117
	movq	%rdx, %rsi	# _16,
	movq	%rax, %rdi	# tmp117,
	call	_ZNSt6vectorIiSaIiEEixEm	#
	movl	(%rax), %ebx	# *_17, _19
# /home/zhuo/git/dp_study/src/main.cpp:46: }
	.loc 4 46 1
	leaq	-48(%rbp), %rax	#, tmp118
	movq	%rax, %rdi	# tmp118,
	call	_ZNSt6vectorIiSaIiEED1Ev	#
.L41:
# /home/zhuo/git/dp_study/src/main.cpp:46: }
	.loc 4 46 1 is_stmt 0 discriminator 1
	movl	%ebx, %eax	# _19, <retval>
	movq	-24(%rbp), %rdx	# D.88393, tmp123
	subq	%fs:40, %rdx	# MEM[(<address-space-1> long unsigned int *)40B], tmp123
	je	.L43	#,
	jmp	.L45	#
.L44:
	endbr64	
	movq	%rax, %rbx	#, tmp121
	leaq	-53(%rbp), %rax	#, tmp120
	movq	%rax, %rdi	# tmp120,
	call	_ZNSaIiED1Ev	#
	movq	%rbx, %rax	# tmp121, D.88392
	movq	%rax, %rdi	# D.88392,
.LEHB6:
	call	_Unwind_Resume@PLT	#
.LEHE6:
.L45:
# /home/zhuo/git/dp_study/src/main.cpp:46: }
	.loc 4 46 1
	call	__stack_chk_fail@PLT	#
.L43:
	movq	-8(%rbp), %rbx	#,
	leave	
	.cfi_def_cfa 7, 8
	ret	
	.cfi_endproc
.LFE3476:
	.section	.gcc_except_table
.LLSDA3476:
	.byte	0xff
	.byte	0xff
	.byte	0x1
	.uleb128 .LLSDACSE3476-.LLSDACSB3476
.LLSDACSB3476:
	.uleb128 .LEHB5-.LFB3476
	.uleb128 .LEHE5-.LEHB5
	.uleb128 .L44-.LFB3476
	.uleb128 0
	.uleb128 .LEHB6-.LFB3476
	.uleb128 .LEHE6-.LEHB6
	.uleb128 0
	.uleb128 0
.LLSDACSE3476:
	.text
	.size	_Z11climbStairsi, .-_Z11climbStairsi
	.section	.text._ZNSt6chrono13duration_castINS_8durationIlSt5ratioILl1ELl1000000000EEEElS3_EENSt9enable_ifIXsrNS_13__is_durationIT_EE5valueES7_E4typeERKNS1_IT0_T1_EE,"axG",@progbits,_ZNSt6chrono13duration_castINS_8durationIlSt5ratioILl1ELl1000000000EEEElS3_EENSt9enable_ifIXsrNS_13__is_durationIT_EE5valueES7_E4typeERKNS1_IT0_T1_EE,comdat
	.weak	_ZNSt6chrono13duration_castINS_8durationIlSt5ratioILl1ELl1000000000EEEElS3_EENSt9enable_ifIXsrNS_13__is_durationIT_EE5valueES7_E4typeERKNS1_IT0_T1_EE
	.type	_ZNSt6chrono13duration_castINS_8durationIlSt5ratioILl1ELl1000000000EEEElS3_EENSt9enable_ifIXsrNS_13__is_durationIT_EE5valueES7_E4typeERKNS1_IT0_T1_EE, @function
_ZNSt6chrono13duration_castINS_8durationIlSt5ratioILl1ELl1000000000EEEElS3_EENSt9enable_ifIXsrNS_13__is_durationIT_EE5valueES7_E4typeERKNS1_IT0_T1_EE:
.LFB3478:
	.loc 3 267 7 is_stmt 1
	.cfi_startproc
	endbr64	
	pushq	%rbp	#
	.cfi_def_cfa_offset 16
	.cfi_offset 6, -16
	movq	%rsp, %rbp	#,
	.cfi_def_cfa_register 6
	subq	$16, %rsp	#,
	movq	%rdi, -8(%rbp)	# __d, __d
# /usr/include/c++/11/chrono:276: 	return __dc::__cast(__d);
	.loc 3 276 21
	movq	-8(%rbp), %rax	# __d, tmp84
	movq	%rax, %rdi	# tmp84,
	call	_ZNSt6chrono20__duration_cast_implINS_8durationIlSt5ratioILl1ELl1000000000EEEES2_ILl1ELl1EElLb1ELb1EE6__castIlS3_EES4_RKNS1_IT_T0_EE	#
# /usr/include/c++/11/chrono:277:       }
	.loc 3 277 7
	leave	
	.cfi_def_cfa 7, 8
	ret	
	.cfi_endproc
.LFE3478:
	.size	_ZNSt6chrono13duration_castINS_8durationIlSt5ratioILl1ELl1000000000EEEElS3_EENSt9enable_ifIXsrNS_13__is_durationIT_EE5valueES7_E4typeERKNS1_IT0_T1_EE, .-_ZNSt6chrono13duration_castINS_8durationIlSt5ratioILl1ELl1000000000EEEElS3_EENSt9enable_ifIXsrNS_13__is_durationIT_EE5valueES7_E4typeERKNS1_IT0_T1_EE
	.section	.text._ZNSt6chronomiINS_3_V212system_clockENS_8durationIlSt5ratioILl1ELl1000000000EEEES6_EENSt11common_typeIJT0_T1_EE4typeERKNS_10time_pointIT_S8_EERKNSC_ISD_S9_EE,"axG",@progbits,_ZNSt6chronomiINS_3_V212system_clockENS_8durationIlSt5ratioILl1ELl1000000000EEEES6_EENSt11common_typeIJT0_T1_EE4typeERKNS_10time_pointIT_S8_EERKNSC_ISD_S9_EE,comdat
	.weak	_ZNSt6chronomiINS_3_V212system_clockENS_8durationIlSt5ratioILl1ELl1000000000EEEES6_EENSt11common_typeIJT0_T1_EE4typeERKNS_10time_pointIT_S8_EERKNSC_ISD_S9_EE
	.type	_ZNSt6chronomiINS_3_V212system_clockENS_8durationIlSt5ratioILl1ELl1000000000EEEES6_EENSt11common_typeIJT0_T1_EE4typeERKNS_10time_pointIT_S8_EERKNSC_ISD_S9_EE, @function
_ZNSt6chronomiINS_3_V212system_clockENS_8durationIlSt5ratioILl1ELl1000000000EEEES6_EENSt11common_typeIJT0_T1_EE4typeERKNS_10time_pointIT_S8_EERKNSC_ISD_S9_EE:
.LFB3479:
	.loc 3 1042 7
	.cfi_startproc
	endbr64	
	pushq	%rbp	#
	.cfi_def_cfa_offset 16
	.cfi_offset 6, -16
	movq	%rsp, %rbp	#,
	.cfi_def_cfa_register 6
	subq	$48, %rsp	#,
	movq	%rdi, -40(%rbp)	# __lhs, __lhs
	movq	%rsi, -48(%rbp)	# __rhs, __rhs
# /usr/include/c++/11/chrono:1042:       operator-(const time_point<_Clock, _Dur1>& __lhs,
	.loc 3 1042 7
	movq	%fs:40, %rax	# MEM[(<address-space-1> long unsigned int *)40B], tmp93
	movq	%rax, -8(%rbp)	# tmp93, D.88394
	xorl	%eax, %eax	# tmp93
# /usr/include/c++/11/chrono:1044:       { return __lhs.time_since_epoch() - __rhs.time_since_epoch(); }
	.loc 3 1044 65
	movq	-48(%rbp), %rax	# __rhs, tmp84
	movq	%rax, %rdi	# tmp84,
	call	_ZNKSt6chrono10time_pointINS_3_V212system_clockENS_8durationIlSt5ratioILl1ELl1000000000EEEEE16time_since_epochEv	#
	movq	%rax, -16(%rbp)	# tmp86, D.82148
# /usr/include/c++/11/chrono:1044:       { return __lhs.time_since_epoch() - __rhs.time_since_epoch(); }
	.loc 3 1044 38
	movq	-40(%rbp), %rax	# __lhs, tmp87
	movq	%rax, %rdi	# tmp87,
	call	_ZNKSt6chrono10time_pointINS_3_V212system_clockENS_8durationIlSt5ratioILl1ELl1000000000EEEEE16time_since_epochEv	#
	movq	%rax, -24(%rbp)	# tmp89, D.82147
# /usr/include/c++/11/chrono:1044:       { return __lhs.time_since_epoch() - __rhs.time_since_epoch(); }
	.loc 3 1044 41
	leaq	-16(%rbp), %rdx	#, tmp90
	leaq	-24(%rbp), %rax	#, tmp91
	movq	%rdx, %rsi	# tmp90,
	movq	%rax, %rdi	# tmp91,
	call	_ZNSt6chronomiIlSt5ratioILl1ELl1000000000EElS2_EENSt11common_typeIJNS_8durationIT_T0_EENS4_IT1_T2_EEEE4typeERKS7_RKSA_	#
# /usr/include/c++/11/chrono:1044:       { return __lhs.time_since_epoch() - __rhs.time_since_epoch(); }
	.loc 3 1044 69
	movq	-8(%rbp), %rdx	# D.88394, tmp94
	subq	%fs:40, %rdx	# MEM[(<address-space-1> long unsigned int *)40B], tmp94
	je	.L50	#,
	call	__stack_chk_fail@PLT	#
.L50:
	leave	
	.cfi_def_cfa 7, 8
	ret	
	.cfi_endproc
.LFE3479:
	.size	_ZNSt6chronomiINS_3_V212system_clockENS_8durationIlSt5ratioILl1ELl1000000000EEEES6_EENSt11common_typeIJT0_T1_EE4typeERKNS_10time_pointIT_S8_EERKNSC_ISD_S9_EE, .-_ZNSt6chronomiINS_3_V212system_clockENS_8durationIlSt5ratioILl1ELl1000000000EEEES6_EENSt11common_typeIJT0_T1_EE4typeERKNS_10time_pointIT_S8_EERKNSC_ISD_S9_EE
	.section	.text._ZNSt6chronomiIlSt5ratioILl1ELl1000000000EElS2_EENSt11common_typeIJNS_8durationIT_T0_EENS4_IT1_T2_EEEE4typeERKS7_RKSA_,"axG",@progbits,_ZNSt6chronomiIlSt5ratioILl1ELl1000000000EElS2_EENSt11common_typeIJNS_8durationIT_T0_EENS4_IT1_T2_EEEE4typeERKS7_RKSA_,comdat
	.weak	_ZNSt6chronomiIlSt5ratioILl1ELl1000000000EElS2_EENSt11common_typeIJNS_8durationIT_T0_EENS4_IT1_T2_EEEE4typeERKS7_RKSA_
	.type	_ZNSt6chronomiIlSt5ratioILl1ELl1000000000EElS2_EENSt11common_typeIJNS_8durationIT_T0_EENS4_IT1_T2_EEEE4typeERKS7_RKSA_, @function
_ZNSt6chronomiIlSt5ratioILl1ELl1000000000EElS2_EENSt11common_typeIJNS_8durationIT_T0_EENS4_IT1_T2_EEEE4typeERKS7_RKSA_:
.LFB3480:
	.loc 3 660 7
	.cfi_startproc
	endbr64	
	pushq	%rbp	#
	.cfi_def_cfa_offset 16
	.cfi_offset 6, -16
	movq	%rsp, %rbp	#,
	.cfi_def_cfa_register 6
	pushq	%rbx	#
	subq	$72, %rsp	#,
	.cfi_offset 3, -24
	movq	%rdi, -72(%rbp)	# __lhs, __lhs
	movq	%rsi, -80(%rbp)	# __rhs, __rhs
# /usr/include/c++/11/chrono:660:       operator-(const duration<_Rep1, _Period1>& __lhs,
	.loc 3 660 7
	movq	%fs:40, %rax	# MEM[(<address-space-1> long unsigned int *)40B], tmp96
	movq	%rax, -24(%rbp)	# tmp96, D.88395
	xorl	%eax, %eax	# tmp96
# /usr/include/c++/11/chrono:666: 	return __cd(__cd(__lhs).count() - __cd(__rhs).count());
	.loc 3 666 14
	movq	-72(%rbp), %rax	# __lhs, tmp87
	movq	(%rax), %rax	# *__lhs_5(D), tmp88
	movq	%rax, -56(%rbp)	# tmp88, D.82165
# /usr/include/c++/11/chrono:666: 	return __cd(__cd(__lhs).count() - __cd(__rhs).count());
	.loc 3 666 31
	leaq	-56(%rbp), %rax	#, tmp89
	movq	%rax, %rdi	# tmp89,
	call	_ZNKSt6chrono8durationIlSt5ratioILl1ELl1000000000EEE5countEv	#
	movq	%rax, %rbx	#, _1
# /usr/include/c++/11/chrono:666: 	return __cd(__cd(__lhs).count() - __cd(__rhs).count());
	.loc 3 666 36
	movq	-80(%rbp), %rax	# __rhs, tmp90
	movq	(%rax), %rax	# *__rhs_8(D), tmp91
	movq	%rax, -48(%rbp)	# tmp91, D.82166
# /usr/include/c++/11/chrono:666: 	return __cd(__cd(__lhs).count() - __cd(__rhs).count());
	.loc 3 666 53
	leaq	-48(%rbp), %rax	#, tmp92
	movq	%rax, %rdi	# tmp92,
	call	_ZNKSt6chrono8durationIlSt5ratioILl1ELl1000000000EEE5countEv	#
	movq	%rax, %rdx	#, _2
# /usr/include/c++/11/chrono:666: 	return __cd(__cd(__lhs).count() - __cd(__rhs).count());
	.loc 3 666 34
	movq	%rbx, %rax	# _1, _1
	subq	%rdx, %rax	# _2, _1
	movq	%rax, -40(%rbp)	# _3, D.82167
# /usr/include/c++/11/chrono:666: 	return __cd(__cd(__lhs).count() - __cd(__rhs).count());
	.loc 3 666 9
	leaq	-40(%rbp), %rdx	#, tmp93
	leaq	-32(%rbp), %rax	#, tmp94
	movq	%rdx, %rsi	# tmp93,
	movq	%rax, %rdi	# tmp94,
	call	_ZNSt6chrono8durationIlSt5ratioILl1ELl1000000000EEEC1IlvEERKT_	#
# /usr/include/c++/11/chrono:666: 	return __cd(__cd(__lhs).count() - __cd(__rhs).count());
	.loc 3 666 55
	movq	-32(%rbp), %rax	# D.82168, D.88303
# /usr/include/c++/11/chrono:667:       }
	.loc 3 667 7
	movq	-24(%rbp), %rdx	# D.88395, tmp97
	subq	%fs:40, %rdx	# MEM[(<address-space-1> long unsigned int *)40B], tmp97
	je	.L53	#,
	call	__stack_chk_fail@PLT	#
.L53:
	movq	-8(%rbp), %rbx	#,
	leave	
	.cfi_def_cfa 7, 8
	ret	
	.cfi_endproc
.LFE3480:
	.size	_ZNSt6chronomiIlSt5ratioILl1ELl1000000000EElS2_EENSt11common_typeIJNS_8durationIT_T0_EENS4_IT1_T2_EEEE4typeERKS7_RKSA_, .-_ZNSt6chronomiIlSt5ratioILl1ELl1000000000EElS2_EENSt11common_typeIJNS_8durationIT_T0_EENS4_IT1_T2_EEEE4typeERKS7_RKSA_
	.section	.text._ZNKSt6chrono10time_pointINS_3_V212system_clockENS_8durationIlSt5ratioILl1ELl1000000000EEEEE16time_since_epochEv,"axG",@progbits,_ZNKSt6chrono10time_pointINS_3_V212system_clockENS_8durationIlSt5ratioILl1ELl1000000000EEEEE16time_since_epochEv,comdat
	.align 2
	.weak	_ZNKSt6chrono10time_pointINS_3_V212system_clockENS_8durationIlSt5ratioILl1ELl1000000000EEEEE16time_since_epochEv
	.type	_ZNKSt6chrono10time_pointINS_3_V212system_clockENS_8durationIlSt5ratioILl1ELl1000000000EEEEE16time_since_epochEv, @function
_ZNKSt6chrono10time_pointINS_3_V212system_clockENS_8durationIlSt5ratioILl1ELl1000000000EEEEE16time_since_epochEv:
.LFB3481:
	.loc 3 898 2
	.cfi_startproc
	endbr64	
	pushq	%rbp	#
	.cfi_def_cfa_offset 16
	.cfi_offset 6, -16
	movq	%rsp, %rbp	#,
	.cfi_def_cfa_register 6
	movq	%rdi, -8(%rbp)	# this, this
# /usr/include/c++/11/chrono:899: 	{ return __d; }
	.loc 3 899 11
	movq	-8(%rbp), %rax	# this, tmp84
	movq	(%rax), %rax	# this_2(D)->__d, D.88301
# /usr/include/c++/11/chrono:899: 	{ return __d; }
	.loc 3 899 16
	popq	%rbp	#
	.cfi_def_cfa 7, 8
	ret	
	.cfi_endproc
.LFE3481:
	.size	_ZNKSt6chrono10time_pointINS_3_V212system_clockENS_8durationIlSt5ratioILl1ELl1000000000EEEEE16time_since_epochEv, .-_ZNKSt6chrono10time_pointINS_3_V212system_clockENS_8durationIlSt5ratioILl1ELl1000000000EEEEE16time_since_epochEv
	.section	.rodata
.LC0:
	.string	"\345\212\250\346\200\201\350\247\204\345\210\222\345\255\246\344\271\240\347\244\272\344\276\213"
.LC1:
	.string	"\350\257\267\350\276\223\345\205\245n\347\232\204\345\200\274: "
.LC2:
	.string	"\346\226\220\346\263\242\351\202\243\345\245\221\346\225\260\345\210\227\347\254\254"
.LC3:
	.string	"\351\241\271: "
	.align 8
.LC4:
	.string	"\346\226\220\346\263\242\351\202\243\345\245\221\345\207\275\346\225\260\350\277\220\350\241\214\346\227\266\351\227\264: "
.LC5:
	.string	" \347\272\263\347\247\222"
	.align 8
.LC6:
	.string	"------------------------------------"
.LC7:
	.string	"\347\210\254"
.LC8:
	.string	"\347\272\247\346\245\274\346\242\257\347\232\204\346\226\271\346\263\225\346\225\260: "
.LC9:
	.string	"\347\210\254\346\245\274\346\242\257\345\207\275\346\225\260\350\277\220\350\241\214\346\227\266\351\227\264: "
	.text
	.globl	main
	.type	main, @function
main:
.LFB3477:
	.loc 4 48 12
	.cfi_startproc
	endbr64	
	pushq	%rbp	#
	.cfi_def_cfa_offset 16
	.cfi_offset 6, -16
	movq	%rsp, %rbp	#,
	.cfi_def_cfa_register 6
	subq	$80, %rsp	#,
# /home/zhuo/git/dp_study/src/main.cpp:48: int main() {
	.loc 4 48 12
	movq	%fs:40, %rax	# MEM[(<address-space-1> long unsigned int *)40B], tmp209
	movq	%rax, -8(%rbp)	# tmp209, D.88397
	xorl	%eax, %eax	# tmp209
# /home/zhuo/git/dp_study/src/main.cpp:49:     std::cout << "动态规划学习示例" << std::endl;
	.loc 4 49 18
	leaq	.LC0(%rip), %rax	#, tmp117
	movq	%rax, %rsi	# tmp117,
	leaq	_ZSt4cout(%rip), %rax	#, tmp118
	movq	%rax, %rdi	# tmp118,
	call	_ZStlsISt11char_traitsIcEERSt13basic_ostreamIcT_ES5_PKc@PLT	#
# /home/zhuo/git/dp_study/src/main.cpp:49:     std::cout << "动态规划学习示例" << std::endl;
	.loc 4 49 53
	movq	_ZSt4endlIcSt11char_traitsIcEERSt13basic_ostreamIT_T0_ES6_@GOTPCREL(%rip), %rdx	#, tmp120
	movq	%rdx, %rsi	# tmp119,
	movq	%rax, %rdi	# _1,
	call	_ZNSolsEPFRSoS_E@PLT	#
# /home/zhuo/git/dp_study/src/main.cpp:52:     std::cout << "请输入n的值: ";
	.loc 4 52 18
	leaq	.LC1(%rip), %rax	#, tmp121
	movq	%rax, %rsi	# tmp121,
	leaq	_ZSt4cout(%rip), %rax	#, tmp122
	movq	%rax, %rdi	# tmp122,
	call	_ZStlsISt11char_traitsIcEERSt13basic_ostreamIcT_ES5_PKc@PLT	#
# /home/zhuo/git/dp_study/src/main.cpp:54:     std::cin >> n;
	.loc 4 54 17
	leaq	-80(%rbp), %rax	#, tmp123
	movq	%rax, %rsi	# tmp123,
	leaq	_ZSt3cin(%rip), %rax	#, tmp124
	movq	%rax, %rdi	# tmp124,
	call	_ZNSirsERi@PLT	#
# /home/zhuo/git/dp_study/src/main.cpp:57:     auto start = std::chrono::high_resolution_clock::now();
	.loc 4 57 57
	call	_ZNSt6chrono3_V212system_clock3nowEv@PLT	#
	movq	%rax, -64(%rbp)	# tmp126, start
# /home/zhuo/git/dp_study/src/main.cpp:58:     int fibResult = fibonacci(n);
	.loc 4 58 30
	movl	-80(%rbp), %eax	# n, n.5_2
	movl	%eax, %edi	# n.5_2,
	call	_Z9fibonaccii	#
	movl	%eax, -76(%rbp)	# _40, fibResult
# /home/zhuo/git/dp_study/src/main.cpp:59:     auto end = std::chrono::high_resolution_clock::now();
	.loc 4 59 55
	call	_ZNSt6chrono3_V212system_clock3nowEv@PLT	#
	movq	%rax, -56(%rbp)	# tmp128, end
# /home/zhuo/git/dp_study/src/main.cpp:60:     auto fibDuration = std::chrono::duration_cast<std::chrono::nanoseconds>(end - start).count();
	.loc 4 60 83
	leaq	-64(%rbp), %rdx	#, tmp129
	leaq	-56(%rbp), %rax	#, tmp130
	movq	%rdx, %rsi	# tmp129,
	movq	%rax, %rdi	# tmp130,
	call	_ZNSt6chronomiINS_3_V212system_clockENS_8durationIlSt5ratioILl1ELl1000000000EEEES6_EENSt11common_typeIJT0_T1_EE4typeERKNS_10time_pointIT_S8_EERKNSC_ISD_S9_EE	#
	movq	%rax, -48(%rbp)	# tmp132, MEM[(struct duration *)_132]
# /home/zhuo/git/dp_study/src/main.cpp:60:     auto fibDuration = std::chrono::duration_cast<std::chrono::nanoseconds>(end - start).count();
	.loc 4 60 76
	leaq	-48(%rbp), %rax	#, tmp133
	movq	%rax, %rdi	# tmp133,
	call	_ZNSt6chrono13duration_castINS_8durationIlSt5ratioILl1ELl1000000000EEEElS3_EENSt9enable_ifIXsrNS_13__is_durationIT_EE5valueES7_E4typeERKNS1_IT0_T1_EE	#
	movq	%rax, -40(%rbp)	# tmp135, MEM[(struct duration *)_133]
# /home/zhuo/git/dp_study/src/main.cpp:60:     auto fibDuration = std::chrono::duration_cast<std::chrono::nanoseconds>(end - start).count();
	.loc 4 60 95
	leaq	-40(%rbp), %rax	#, tmp136
	movq	%rax, %rdi	# tmp136,
	call	_ZNKSt6chrono8durationIlSt5ratioILl1ELl1000000000EEE5countEv	#
	movq	%rax, -32(%rbp)	# tmp137, fibDuration
# /home/zhuo/git/dp_study/src/main.cpp:61:     std::cout << "斐波那契数列第" << n << "项: " << fibResult << std::endl;
	.loc 4 61 18
	leaq	.LC2(%rip), %rax	#, tmp138
	movq	%rax, %rsi	# tmp138,
	leaq	_ZSt4cout(%rip), %rax	#, tmp139
	movq	%rax, %rdi	# tmp139,
	call	_ZStlsISt11char_traitsIcEERSt13basic_ostreamIcT_ES5_PKc@PLT	#
	movq	%rax, %rdx	#, _3
# /home/zhuo/git/dp_study/src/main.cpp:61:     std::cout << "斐波那契数列第" << n << "项: " << fibResult << std::endl;
	.loc 4 61 50
	movl	-80(%rbp), %eax	# n, n.6_4
	movl	%eax, %esi	# n.6_4,
	movq	%rdx, %rdi	# _3,
	call	_ZNSolsEi@PLT	#
	movq	%rax, %rdx	#, _5
	leaq	.LC3(%rip), %rax	#, tmp140
	movq	%rax, %rsi	# tmp140,
	movq	%rdx, %rdi	# _5,
	call	_ZStlsISt11char_traitsIcEERSt13basic_ostreamIcT_ES5_PKc@PLT	#
	movq	%rax, %rdx	#, _6
# /home/zhuo/git/dp_study/src/main.cpp:61:     std::cout << "斐波那契数列第" << n << "项: " << fibResult << std::endl;
	.loc 4 61 61
	movl	-76(%rbp), %eax	# fibResult, tmp141
	movl	%eax, %esi	# tmp141,
	movq	%rdx, %rdi	# _6,
	call	_ZNSolsEi@PLT	#
# /home/zhuo/git/dp_study/src/main.cpp:61:     std::cout << "斐波那契数列第" << n << "项: " << fibResult << std::endl;
	.loc 4 61 79
	movq	_ZSt4endlIcSt11char_traitsIcEERSt13basic_ostreamIT_T0_ES6_@GOTPCREL(%rip), %rdx	#, tmp143
	movq	%rdx, %rsi	# tmp142,
	movq	%rax, %rdi	# _7,
	call	_ZNSolsEPFRSoS_E@PLT	#
# /home/zhuo/git/dp_study/src/main.cpp:62:     std::cout << "斐波那契函数运行时间: " << fibDuration << " 纳秒" << std::endl;
	.loc 4 62 18
	leaq	.LC4(%rip), %rax	#, tmp144
	movq	%rax, %rsi	# tmp144,
	leaq	_ZSt4cout(%rip), %rax	#, tmp145
	movq	%rax, %rdi	# tmp145,
	call	_ZStlsISt11char_traitsIcEERSt13basic_ostreamIcT_ES5_PKc@PLT	#
	movq	%rax, %rdx	#, _8
# /home/zhuo/git/dp_study/src/main.cpp:62:     std::cout << "斐波那契函数运行时间: " << fibDuration << " 纳秒" << std::endl;
	.loc 4 62 56
	movq	-32(%rbp), %rax	# fibDuration, tmp146
	movq	%rax, %rsi	# tmp146,
	movq	%rdx, %rdi	# _8,
	call	_ZNSolsEl@PLT	#
	movq	%rax, %rdx	#, _9
# /home/zhuo/git/dp_study/src/main.cpp:62:     std::cout << "斐波那契函数运行时间: " << fibDuration << " 纳秒" << std::endl;
	.loc 4 62 71
	leaq	.LC5(%rip), %rax	#, tmp147
	movq	%rax, %rsi	# tmp147,
	movq	%rdx, %rdi	# _9,
	call	_ZStlsISt11char_traitsIcEERSt13basic_ostreamIcT_ES5_PKc@PLT	#
# /home/zhuo/git/dp_study/src/main.cpp:62:     std::cout << "斐波那契函数运行时间: " << fibDuration << " 纳秒" << std::endl;
	.loc 4 62 89
	movq	_ZSt4endlIcSt11char_traitsIcEERSt13basic_ostreamIT_T0_ES6_@GOTPCREL(%rip), %rdx	#, tmp149
	movq	%rdx, %rsi	# tmp148,
	movq	%rax, %rdi	# _10,
	call	_ZNSolsEPFRSoS_E@PLT	#
# /home/zhuo/git/dp_study/src/main.cpp:63:     std::cout << "------------------------------------" << std::endl;
	.loc 4 63 18
	leaq	.LC6(%rip), %rax	#, tmp150
	movq	%rax, %rsi	# tmp150,
	leaq	_ZSt4cout(%rip), %rax	#, tmp151
	movq	%rax, %rdi	# tmp151,
	call	_ZStlsISt11char_traitsIcEERSt13basic_ostreamIcT_ES5_PKc@PLT	#
# /home/zhuo/git/dp_study/src/main.cpp:63:     std::cout << "------------------------------------" << std::endl;
	.loc 4 63 65
	movq	_ZSt4endlIcSt11char_traitsIcEERSt13basic_ostreamIT_T0_ES6_@GOTPCREL(%rip), %rdx	#, tmp153
	movq	%rdx, %rsi	# tmp152,
	movq	%rax, %rdi	# _11,
	call	_ZNSolsEPFRSoS_E@PLT	#
# /home/zhuo/git/dp_study/src/main.cpp:65:     start = std::chrono::high_resolution_clock::now();
	.loc 4 65 52
	call	_ZNSt6chrono3_V212system_clock3nowEv@PLT	#
	movq	%rax, -64(%rbp)	# tmp155, start
# /home/zhuo/git/dp_study/src/main.cpp:66:     int fib1Result = fib(n);
	.loc 4 66 25
	movl	-80(%rbp), %eax	# n, n.7_12
	movl	%eax, %edi	# n.7_12,
	call	_Z3fibi	#
	movl	%eax, -72(%rbp)	# _70, fib1Result
# /home/zhuo/git/dp_study/src/main.cpp:67:     end = std::chrono::high_resolution_clock::now();
	.loc 4 67 50
	call	_ZNSt6chrono3_V212system_clock3nowEv@PLT	#
	movq	%rax, -56(%rbp)	# tmp157, end
# /home/zhuo/git/dp_study/src/main.cpp:68:     auto fib1Duration = std::chrono::duration_cast<std::chrono::nanoseconds>(end - start).count();
	.loc 4 68 84
	leaq	-64(%rbp), %rdx	#, tmp158
	leaq	-56(%rbp), %rax	#, tmp159
	movq	%rdx, %rsi	# tmp158,
	movq	%rax, %rdi	# tmp159,
	call	_ZNSt6chronomiINS_3_V212system_clockENS_8durationIlSt5ratioILl1ELl1000000000EEEES6_EENSt11common_typeIJT0_T1_EE4typeERKNS_10time_pointIT_S8_EERKNSC_ISD_S9_EE	#
	movq	%rax, -48(%rbp)	# tmp161, MEM[(struct duration *)_132]
# /home/zhuo/git/dp_study/src/main.cpp:68:     auto fib1Duration = std::chrono::duration_cast<std::chrono::nanoseconds>(end - start).count();
	.loc 4 68 77
	leaq	-48(%rbp), %rax	#, tmp162
	movq	%rax, %rdi	# tmp162,
	call	_ZNSt6chrono13duration_castINS_8durationIlSt5ratioILl1ELl1000000000EEEElS3_EENSt9enable_ifIXsrNS_13__is_durationIT_EE5valueES7_E4typeERKNS1_IT0_T1_EE	#
	movq	%rax, -40(%rbp)	# tmp164, MEM[(struct duration *)_133]
# /home/zhuo/git/dp_study/src/main.cpp:68:     auto fib1Duration = std::chrono::duration_cast<std::chrono::nanoseconds>(end - start).count();
	.loc 4 68 96
	leaq	-40(%rbp), %rax	#, tmp165
	movq	%rax, %rdi	# tmp165,
	call	_ZNKSt6chrono8durationIlSt5ratioILl1ELl1000000000EEE5countEv	#
	movq	%rax, -24(%rbp)	# tmp166, fib1Duration
# /home/zhuo/git/dp_study/src/main.cpp:69:     std::cout << "斐波那契数列第" << n << "项: " << fib1Result << std::endl;
	.loc 4 69 18
	leaq	.LC2(%rip), %rax	#, tmp167
	movq	%rax, %rsi	# tmp167,
	leaq	_ZSt4cout(%rip), %rax	#, tmp168
	movq	%rax, %rdi	# tmp168,
	call	_ZStlsISt11char_traitsIcEERSt13basic_ostreamIcT_ES5_PKc@PLT	#
	movq	%rax, %rdx	#, _13
# /home/zhuo/git/dp_study/src/main.cpp:69:     std::cout << "斐波那契数列第" << n << "项: " << fib1Result << std::endl;
	.loc 4 69 50
	movl	-80(%rbp), %eax	# n, n.8_14
	movl	%eax, %esi	# n.8_14,
	movq	%rdx, %rdi	# _13,
	call	_ZNSolsEi@PLT	#
	movq	%rax, %rdx	#, _15
	leaq	.LC3(%rip), %rax	#, tmp169
	movq	%rax, %rsi	# tmp169,
	movq	%rdx, %rdi	# _15,
	call	_ZStlsISt11char_traitsIcEERSt13basic_ostreamIcT_ES5_PKc@PLT	#
	movq	%rax, %rdx	#, _16
# /home/zhuo/git/dp_study/src/main.cpp:69:     std::cout << "斐波那契数列第" << n << "项: " << fib1Result << std::endl;
	.loc 4 69 61
	movl	-72(%rbp), %eax	# fib1Result, tmp170
	movl	%eax, %esi	# tmp170,
	movq	%rdx, %rdi	# _16,
	call	_ZNSolsEi@PLT	#
# /home/zhuo/git/dp_study/src/main.cpp:69:     std::cout << "斐波那契数列第" << n << "项: " << fib1Result << std::endl;
	.loc 4 69 80
	movq	_ZSt4endlIcSt11char_traitsIcEERSt13basic_ostreamIT_T0_ES6_@GOTPCREL(%rip), %rdx	#, tmp172
	movq	%rdx, %rsi	# tmp171,
	movq	%rax, %rdi	# _17,
	call	_ZNSolsEPFRSoS_E@PLT	#
# /home/zhuo/git/dp_study/src/main.cpp:70:     std::cout << "斐波那契函数运行时间: " << fib1Duration << " 纳秒" << std::endl;
	.loc 4 70 18
	leaq	.LC4(%rip), %rax	#, tmp173
	movq	%rax, %rsi	# tmp173,
	leaq	_ZSt4cout(%rip), %rax	#, tmp174
	movq	%rax, %rdi	# tmp174,
	call	_ZStlsISt11char_traitsIcEERSt13basic_ostreamIcT_ES5_PKc@PLT	#
	movq	%rax, %rdx	#, _18
# /home/zhuo/git/dp_study/src/main.cpp:70:     std::cout << "斐波那契函数运行时间: " << fib1Duration << " 纳秒" << std::endl;
	.loc 4 70 56
	movq	-24(%rbp), %rax	# fib1Duration, tmp175
	movq	%rax, %rsi	# tmp175,
	movq	%rdx, %rdi	# _18,
	call	_ZNSolsEl@PLT	#
	movq	%rax, %rdx	#, _19
# /home/zhuo/git/dp_study/src/main.cpp:70:     std::cout << "斐波那契函数运行时间: " << fib1Duration << " 纳秒" << std::endl;
	.loc 4 70 72
	leaq	.LC5(%rip), %rax	#, tmp176
	movq	%rax, %rsi	# tmp176,
	movq	%rdx, %rdi	# _19,
	call	_ZStlsISt11char_traitsIcEERSt13basic_ostreamIcT_ES5_PKc@PLT	#
# /home/zhuo/git/dp_study/src/main.cpp:70:     std::cout << "斐波那契函数运行时间: " << fib1Duration << " 纳秒" << std::endl;
	.loc 4 70 90
	movq	_ZSt4endlIcSt11char_traitsIcEERSt13basic_ostreamIT_T0_ES6_@GOTPCREL(%rip), %rdx	#, tmp178
	movq	%rdx, %rsi	# tmp177,
	movq	%rax, %rdi	# _20,
	call	_ZNSolsEPFRSoS_E@PLT	#
# /home/zhuo/git/dp_study/src/main.cpp:71:     std::cout << "------------------------------------" << std::endl;
	.loc 4 71 18
	leaq	.LC6(%rip), %rax	#, tmp179
	movq	%rax, %rsi	# tmp179,
	leaq	_ZSt4cout(%rip), %rax	#, tmp180
	movq	%rax, %rdi	# tmp180,
	call	_ZStlsISt11char_traitsIcEERSt13basic_ostreamIcT_ES5_PKc@PLT	#
# /home/zhuo/git/dp_study/src/main.cpp:71:     std::cout << "------------------------------------" << std::endl;
	.loc 4 71 65
	movq	_ZSt4endlIcSt11char_traitsIcEERSt13basic_ostreamIT_T0_ES6_@GOTPCREL(%rip), %rdx	#, tmp182
	movq	%rdx, %rsi	# tmp181,
	movq	%rax, %rdi	# _21,
	call	_ZNSolsEPFRSoS_E@PLT	#
# /home/zhuo/git/dp_study/src/main.cpp:73:     start = std::chrono::high_resolution_clock::now();
	.loc 4 73 52
	call	_ZNSt6chrono3_V212system_clock3nowEv@PLT	#
	movq	%rax, -64(%rbp)	# tmp184, start
# /home/zhuo/git/dp_study/src/main.cpp:74:     int climbResult = climbStairs(n);
	.loc 4 74 34
	movl	-80(%rbp), %eax	# n, n.9_22
	movl	%eax, %edi	# n.9_22,
	call	_Z11climbStairsi	#
	movl	%eax, -68(%rbp)	# _100, climbResult
# /home/zhuo/git/dp_study/src/main.cpp:75:     end = std::chrono::high_resolution_clock::now();
	.loc 4 75 50
	call	_ZNSt6chrono3_V212system_clock3nowEv@PLT	#
	movq	%rax, -56(%rbp)	# tmp186, end
# /home/zhuo/git/dp_study/src/main.cpp:76:     auto climbDuration = std::chrono::duration_cast<std::chrono::nanoseconds>(end - start).count();
	.loc 4 76 85
	leaq	-64(%rbp), %rdx	#, tmp187
	leaq	-56(%rbp), %rax	#, tmp188
	movq	%rdx, %rsi	# tmp187,
	movq	%rax, %rdi	# tmp188,
	call	_ZNSt6chronomiINS_3_V212system_clockENS_8durationIlSt5ratioILl1ELl1000000000EEEES6_EENSt11common_typeIJT0_T1_EE4typeERKNS_10time_pointIT_S8_EERKNSC_ISD_S9_EE	#
	movq	%rax, -48(%rbp)	# tmp190, MEM[(struct duration *)_132]
# /home/zhuo/git/dp_study/src/main.cpp:76:     auto climbDuration = std::chrono::duration_cast<std::chrono::nanoseconds>(end - start).count();
	.loc 4 76 78
	leaq	-48(%rbp), %rax	#, tmp191
	movq	%rax, %rdi	# tmp191,
	call	_ZNSt6chrono13duration_castINS_8durationIlSt5ratioILl1ELl1000000000EEEElS3_EENSt9enable_ifIXsrNS_13__is_durationIT_EE5valueES7_E4typeERKNS1_IT0_T1_EE	#
	movq	%rax, -40(%rbp)	# tmp193, MEM[(struct duration *)_133]
# /home/zhuo/git/dp_study/src/main.cpp:76:     auto climbDuration = std::chrono::duration_cast<std::chrono::nanoseconds>(end - start).count();
	.loc 4 76 97
	leaq	-40(%rbp), %rax	#, tmp194
	movq	%rax, %rdi	# tmp194,
	call	_ZNKSt6chrono8durationIlSt5ratioILl1ELl1000000000EEE5countEv	#
	movq	%rax, -16(%rbp)	# tmp195, climbDuration
# /home/zhuo/git/dp_study/src/main.cpp:77:     std::cout << "爬" << n << "级楼梯的方法数: " << climbResult << std::endl;
	.loc 4 77 18
	leaq	.LC7(%rip), %rax	#, tmp196
	movq	%rax, %rsi	# tmp196,
	leaq	_ZSt4cout(%rip), %rax	#, tmp197
	movq	%rax, %rdi	# tmp197,
	call	_ZStlsISt11char_traitsIcEERSt13basic_ostreamIcT_ES5_PKc@PLT	#
	movq	%rax, %rdx	#, _23
# /home/zhuo/git/dp_study/src/main.cpp:77:     std::cout << "爬" << n << "级楼梯的方法数: " << climbResult << std::endl;
	.loc 4 77 32
	movl	-80(%rbp), %eax	# n, n.10_24
	movl	%eax, %esi	# n.10_24,
	movq	%rdx, %rdi	# _23,
	call	_ZNSolsEi@PLT	#
	movq	%rax, %rdx	#, _25
	leaq	.LC8(%rip), %rax	#, tmp198
	movq	%rax, %rsi	# tmp198,
	movq	%rdx, %rdi	# _25,
	call	_ZStlsISt11char_traitsIcEERSt13basic_ostreamIcT_ES5_PKc@PLT	#
	movq	%rax, %rdx	#, _26
# /home/zhuo/git/dp_study/src/main.cpp:77:     std::cout << "爬" << n << "级楼梯的方法数: " << climbResult << std::endl;
	.loc 4 77 61
	movl	-68(%rbp), %eax	# climbResult, tmp199
	movl	%eax, %esi	# tmp199,
	movq	%rdx, %rdi	# _26,
	call	_ZNSolsEi@PLT	#
# /home/zhuo/git/dp_study/src/main.cpp:77:     std::cout << "爬" << n << "级楼梯的方法数: " << climbResult << std::endl;
	.loc 4 77 81
	movq	_ZSt4endlIcSt11char_traitsIcEERSt13basic_ostreamIT_T0_ES6_@GOTPCREL(%rip), %rdx	#, tmp201
	movq	%rdx, %rsi	# tmp200,
	movq	%rax, %rdi	# _27,
	call	_ZNSolsEPFRSoS_E@PLT	#
# /home/zhuo/git/dp_study/src/main.cpp:78:     std::cout << "爬楼梯函数运行时间: " << climbDuration << " 纳秒" << std::endl;
	.loc 4 78 18
	leaq	.LC9(%rip), %rax	#, tmp202
	movq	%rax, %rsi	# tmp202,
	leaq	_ZSt4cout(%rip), %rax	#, tmp203
	movq	%rax, %rdi	# tmp203,
	call	_ZStlsISt11char_traitsIcEERSt13basic_ostreamIcT_ES5_PKc@PLT	#
	movq	%rax, %rdx	#, _28
# /home/zhuo/git/dp_study/src/main.cpp:78:     std::cout << "爬楼梯函数运行时间: " << climbDuration << " 纳秒" << std::endl;
	.loc 4 78 53
	movq	-16(%rbp), %rax	# climbDuration, tmp204
	movq	%rax, %rsi	# tmp204,
	movq	%rdx, %rdi	# _28,
	call	_ZNSolsEl@PLT	#
	movq	%rax, %rdx	#, _29
# /home/zhuo/git/dp_study/src/main.cpp:78:     std::cout << "爬楼梯函数运行时间: " << climbDuration << " 纳秒" << std::endl;
	.loc 4 78 70
	leaq	.LC5(%rip), %rax	#, tmp205
	movq	%rax, %rsi	# tmp205,
	movq	%rdx, %rdi	# _29,
	call	_ZStlsISt11char_traitsIcEERSt13basic_ostreamIcT_ES5_PKc@PLT	#
# /home/zhuo/git/dp_study/src/main.cpp:78:     std::cout << "爬楼梯函数运行时间: " << climbDuration << " 纳秒" << std::endl;
	.loc 4 78 88
	movq	_ZSt4endlIcSt11char_traitsIcEERSt13basic_ostreamIT_T0_ES6_@GOTPCREL(%rip), %rdx	#, tmp207
	movq	%rdx, %rsi	# tmp206,
	movq	%rax, %rdi	# _30,
	call	_ZNSolsEPFRSoS_E@PLT	#
# /home/zhuo/git/dp_study/src/main.cpp:80:     return 0;
	.loc 4 80 12
	movl	$0, %eax	#, _125
# /home/zhuo/git/dp_study/src/main.cpp:81: }
	.loc 4 81 1
	movq	-8(%rbp), %rdx	# D.88397, tmp210
	subq	%fs:40, %rdx	# MEM[(<address-space-1> long unsigned int *)40B], tmp210
	je	.L58	#,
	call	__stack_chk_fail@PLT	#
.L58:
	leave	
	.cfi_def_cfa 7, 8
	ret	
	.cfi_endproc
.LFE3477:
	.size	main, .-main
	.section	.text._ZNSaIiEC2Ev,"axG",@progbits,_ZNSaIiEC5Ev,comdat
	.align 2
	.weak	_ZNSaIiEC2Ev
	.type	_ZNSaIiEC2Ev, @function
_ZNSaIiEC2Ev:
.LFB3777:
	.file 5 "/usr/include/c++/11/bits/allocator.h"
	.loc 5 156 7
	.cfi_startproc
	endbr64	
	pushq	%rbp	#
	.cfi_def_cfa_offset 16
	.cfi_offset 6, -16
	movq	%rsp, %rbp	#,
	.cfi_def_cfa_register 6
	subq	$16, %rsp	#,
	movq	%rdi, -8(%rbp)	# this, this
.LBB5:
# /usr/include/c++/11/bits/allocator.h:156:       allocator() _GLIBCXX_NOTHROW { }
	.loc 5 156 36
	movq	-8(%rbp), %rax	# this, tmp82
	movq	%rax, %rdi	# tmp82,
	call	_ZN9__gnu_cxx13new_allocatorIiEC2Ev	#
.LBE5:
# /usr/include/c++/11/bits/allocator.h:156:       allocator() _GLIBCXX_NOTHROW { }
	.loc 5 156 38
	nop	
	leave	
	.cfi_def_cfa 7, 8
	ret	
	.cfi_endproc
.LFE3777:
	.size	_ZNSaIiEC2Ev, .-_ZNSaIiEC2Ev
	.weak	_ZNSaIiEC1Ev
	.set	_ZNSaIiEC1Ev,_ZNSaIiEC2Ev
	.section	.text._ZNSaIiED2Ev,"axG",@progbits,_ZNSaIiED5Ev,comdat
	.align 2
	.weak	_ZNSaIiED2Ev
	.type	_ZNSaIiED2Ev, @function
_ZNSaIiED2Ev:
.LFB3780:
	.loc 5 174 7
	.cfi_startproc
	endbr64	
	pushq	%rbp	#
	.cfi_def_cfa_offset 16
	.cfi_offset 6, -16
	movq	%rsp, %rbp	#,
	.cfi_def_cfa_register 6
	subq	$16, %rsp	#,
	movq	%rdi, -8(%rbp)	# this, this
.LBB6:
# /usr/include/c++/11/bits/allocator.h:174:       ~allocator() _GLIBCXX_NOTHROW { }
	.loc 5 174 39
	movq	-8(%rbp), %rax	# this, tmp82
	movq	%rax, %rdi	# tmp82,
	call	_ZN9__gnu_cxx13new_allocatorIiED2Ev	#
.LBE6:
	nop	
	leave	
	.cfi_def_cfa 7, 8
	ret	
	.cfi_endproc
.LFE3780:
	.size	_ZNSaIiED2Ev, .-_ZNSaIiED2Ev
	.weak	_ZNSaIiED1Ev
	.set	_ZNSaIiED1Ev,_ZNSaIiED2Ev
	.section	.text._ZNSt6vectorIiSaIiEEC2EmRKS0_,"axG",@progbits,_ZNSt6vectorIiSaIiEEC5EmRKS0_,comdat
	.align 2
	.weak	_ZNSt6vectorIiSaIiEEC2EmRKS0_
	.type	_ZNSt6vectorIiSaIiEEC2EmRKS0_, @function
_ZNSt6vectorIiSaIiEEC2EmRKS0_:
.LFB3783:
	.file 6 "/usr/include/c++/11/bits/stl_vector.h"
	.loc 6 510 7
	.cfi_startproc
	.cfi_personality 0x9b,DW.ref.__gxx_personality_v0
	.cfi_lsda 0x1b,.LLSDA3783
	endbr64	
	pushq	%rbp	#
	.cfi_def_cfa_offset 16
	.cfi_offset 6, -16
	movq	%rsp, %rbp	#,
	.cfi_def_cfa_register 6
	pushq	%rbx	#
	subq	$40, %rsp	#,
	.cfi_offset 3, -24
	movq	%rdi, -24(%rbp)	# this, this
	movq	%rsi, -32(%rbp)	# __n, __n
	movq	%rdx, -40(%rbp)	# __a, __a
.LBB7:
# /usr/include/c++/11/bits/stl_vector.h:511:       : _Base(_S_check_init_len(__n, __a), __a)
	.loc 6 511 47
	movq	-24(%rbp), %rbx	# this, _1
	movq	-40(%rbp), %rdx	# __a, tmp86
	movq	-32(%rbp), %rax	# __n, tmp87
	movq	%rdx, %rsi	# tmp86,
	movq	%rax, %rdi	# tmp87,
.LEHB7:
	call	_ZNSt6vectorIiSaIiEE17_S_check_init_lenEmRKS0_	#
	movq	%rax, %rcx	#, _2
	movq	-40(%rbp), %rax	# __a, tmp88
	movq	%rax, %rdx	# tmp88,
	movq	%rcx, %rsi	# _2,
	movq	%rbx, %rdi	# _1,
	call	_ZNSt12_Vector_baseIiSaIiEEC2EmRKS0_	#
.LEHE7:
# /usr/include/c++/11/bits/stl_vector.h:512:       { _M_default_initialize(__n); }
	.loc 6 512 30
	movq	-32(%rbp), %rdx	# __n, tmp89
	movq	-24(%rbp), %rax	# this, tmp90
	movq	%rdx, %rsi	# tmp89,
	movq	%rax, %rdi	# tmp90,
.LEHB8:
	call	_ZNSt6vectorIiSaIiEE21_M_default_initializeEm	#
.LEHE8:
.LBE7:
# /usr/include/c++/11/bits/stl_vector.h:512:       { _M_default_initialize(__n); }
	.loc 6 512 37
	jmp	.L64	#
.L63:
	endbr64	
.LBB8:
	movq	%rax, %rbx	#, tmp91
	movq	-24(%rbp), %rax	# this, _3
	movq	%rax, %rdi	# _3,
	call	_ZNSt12_Vector_baseIiSaIiEED2Ev	#
	movq	%rbx, %rax	# tmp91, D.88408
	movq	%rax, %rdi	# D.88408,
.LEHB9:
	call	_Unwind_Resume@PLT	#
.LEHE9:
.L64:
.LBE8:
	movq	-8(%rbp), %rbx	#,
	leave	
	.cfi_def_cfa 7, 8
	ret	
	.cfi_endproc
.LFE3783:
	.section	.gcc_except_table
.LLSDA3783:
	.byte	0xff
	.byte	0xff
	.byte	0x1
	.uleb128 .LLSDACSE3783-.LLSDACSB3783
.LLSDACSB3783:
	.uleb128 .LEHB7-.LFB3783
	.uleb128 .LEHE7-.LEHB7
	.uleb128 0
	.uleb128 0
	.uleb128 .LEHB8-.LFB3783
	.uleb128 .LEHE8-.LEHB8
	.uleb128 .L63-.LFB3783
	.uleb128 0
	.uleb128 .LEHB9-.LFB3783
	.uleb128 .LEHE9-.LEHB9
	.uleb128 0
	.uleb128 0
.LLSDACSE3783:
	.section	.text._ZNSt6vectorIiSaIiEEC2EmRKS0_,"axG",@progbits,_ZNSt6vectorIiSaIiEEC5EmRKS0_,comdat
	.size	_ZNSt6vectorIiSaIiEEC2EmRKS0_, .-_ZNSt6vectorIiSaIiEEC2EmRKS0_
	.weak	_ZNSt6vectorIiSaIiEEC1EmRKS0_
	.set	_ZNSt6vectorIiSaIiEEC1EmRKS0_,_ZNSt6vectorIiSaIiEEC2EmRKS0_
	.section	.text._ZNSt6vectorIiSaIiEED2Ev,"axG",@progbits,_ZNSt6vectorIiSaIiEED5Ev,comdat
	.align 2
	.weak	_ZNSt6vectorIiSaIiEED2Ev
	.type	_ZNSt6vectorIiSaIiEED2Ev, @function
_ZNSt6vectorIiSaIiEED2Ev:
.LFB3786:
	.loc 6 678 7
	.cfi_startproc
	.cfi_personality 0x9b,DW.ref.__gxx_personality_v0
	.cfi_lsda 0x1b,.LLSDA3786
	endbr64	
	pushq	%rbp	#
	.cfi_def_cfa_offset 16
	.cfi_offset 6, -16
	movq	%rsp, %rbp	#,
	.cfi_def_cfa_register 6
	subq	$16, %rsp	#,
	movq	%rdi, -8(%rbp)	# this, this
.LBB9:
# /usr/include/c++/11/bits/stl_vector.h:681: 		      _M_get_Tp_allocator());
	.loc 6 681 28
	movq	-8(%rbp), %rax	# this, _1
	movq	%rax, %rdi	# _1,
	call	_ZNSt12_Vector_baseIiSaIiEE19_M_get_Tp_allocatorEv	#
	movq	%rax, %rdx	#, _2
# /usr/include/c++/11/bits/stl_vector.h:680: 	std::_Destroy(this->_M_impl._M_start, this->_M_impl._M_finish,
	.loc 6 680 15
	movq	-8(%rbp), %rax	# this, tmp87
	movq	8(%rax), %rcx	# this_6(D)->D.81883._M_impl.D.81196._M_finish, _3
	movq	-8(%rbp), %rax	# this, tmp88
	movq	(%rax), %rax	# this_6(D)->D.81883._M_impl.D.81196._M_start, _4
	movq	%rcx, %rsi	# _3,
	movq	%rax, %rdi	# _4,
	call	_ZSt8_DestroyIPiiEvT_S1_RSaIT0_E	#
# /usr/include/c++/11/bits/stl_vector.h:683:       }
	.loc 6 683 7
	movq	-8(%rbp), %rax	# this, _5
	movq	%rax, %rdi	# _5,
	call	_ZNSt12_Vector_baseIiSaIiEED2Ev	#
.LBE9:
	nop	
	leave	
	.cfi_def_cfa 7, 8
	ret	
	.cfi_endproc
.LFE3786:
	.section	.gcc_except_table
.LLSDA3786:
	.byte	0xff
	.byte	0xff
	.byte	0x1
	.uleb128 .LLSDACSE3786-.LLSDACSB3786
.LLSDACSB3786:
.LLSDACSE3786:
	.section	.text._ZNSt6vectorIiSaIiEED2Ev,"axG",@progbits,_ZNSt6vectorIiSaIiEED5Ev,comdat
	.size	_ZNSt6vectorIiSaIiEED2Ev, .-_ZNSt6vectorIiSaIiEED2Ev
	.weak	_ZNSt6vectorIiSaIiEED1Ev
	.set	_ZNSt6vectorIiSaIiEED1Ev,_ZNSt6vectorIiSaIiEED2Ev
	.section	.text._ZNSt6vectorIiSaIiEEixEm,"axG",@progbits,_ZNSt6vectorIiSaIiEEixEm,comdat
	.align 2
	.weak	_ZNSt6vectorIiSaIiEEixEm
	.type	_ZNSt6vectorIiSaIiEEixEm, @function
_ZNSt6vectorIiSaIiEEixEm:
.LFB3788:
	.loc 6 1043 7
	.cfi_startproc
	endbr64	
	pushq	%rbp	#
	.cfi_def_cfa_offset 16
	.cfi_offset 6, -16
	movq	%rsp, %rbp	#,
	.cfi_def_cfa_register 6
	movq	%rdi, -8(%rbp)	# this, this
	movq	%rsi, -16(%rbp)	# __n, __n
# /usr/include/c++/11/bits/stl_vector.h:1046: 	return *(this->_M_impl._M_start + __n);
	.loc 6 1046 25
	movq	-8(%rbp), %rax	# this, tmp86
	movq	(%rax), %rdx	# this_4(D)->D.81883._M_impl.D.81196._M_start, _1
# /usr/include/c++/11/bits/stl_vector.h:1046: 	return *(this->_M_impl._M_start + __n);
	.loc 6 1046 34
	movq	-16(%rbp), %rax	# __n, tmp87
	salq	$2, %rax	#, _2
# /usr/include/c++/11/bits/stl_vector.h:1046: 	return *(this->_M_impl._M_start + __n);
	.loc 6 1046 39
	addq	%rdx, %rax	# _1, _6
# /usr/include/c++/11/bits/stl_vector.h:1047:       }
	.loc 6 1047 7
	popq	%rbp	#
	.cfi_def_cfa 7, 8
	ret	
	.cfi_endproc
.LFE3788:
	.size	_ZNSt6vectorIiSaIiEEixEm, .-_ZNSt6vectorIiSaIiEEixEm
	.section	.text._ZNSt6vectorIiSaIiEEC2EmRKiRKS0_,"axG",@progbits,_ZNSt6vectorIiSaIiEEC5EmRKiRKS0_,comdat
	.align 2
	.weak	_ZNSt6vectorIiSaIiEEC2EmRKiRKS0_
	.type	_ZNSt6vectorIiSaIiEEC2EmRKiRKS0_, @function
_ZNSt6vectorIiSaIiEEC2EmRKiRKS0_:
.LFB3790:
	.loc 6 522 7
	.cfi_startproc
	.cfi_personality 0x9b,DW.ref.__gxx_personality_v0
	.cfi_lsda 0x1b,.LLSDA3790
	endbr64	
	pushq	%rbp	#
	.cfi_def_cfa_offset 16
	.cfi_offset 6, -16
	movq	%rsp, %rbp	#,
	.cfi_def_cfa_register 6
	pushq	%rbx	#
	subq	$40, %rsp	#,
	.cfi_offset 3, -24
	movq	%rdi, -24(%rbp)	# this, this
	movq	%rsi, -32(%rbp)	# __n, __n
	movq	%rdx, -40(%rbp)	# __value, __value
	movq	%rcx, -48(%rbp)	# __a, __a
.LBB10:
# /usr/include/c++/11/bits/stl_vector.h:524:       : _Base(_S_check_init_len(__n, __a), __a)
	.loc 6 524 47
	movq	-24(%rbp), %rbx	# this, _1
	movq	-48(%rbp), %rdx	# __a, tmp86
	movq	-32(%rbp), %rax	# __n, tmp87
	movq	%rdx, %rsi	# tmp86,
	movq	%rax, %rdi	# tmp87,
.LEHB10:
	call	_ZNSt6vectorIiSaIiEE17_S_check_init_lenEmRKS0_	#
	movq	%rax, %rcx	#, _2
	movq	-48(%rbp), %rax	# __a, tmp88
	movq	%rax, %rdx	# tmp88,
	movq	%rcx, %rsi	# _2,
	movq	%rbx, %rdi	# _1,
	call	_ZNSt12_Vector_baseIiSaIiEEC2EmRKS0_	#
.LEHE10:
# /usr/include/c++/11/bits/stl_vector.h:525:       { _M_fill_initialize(__n, __value); }
	.loc 6 525 27
	movq	-40(%rbp), %rdx	# __value, tmp89
	movq	-32(%rbp), %rcx	# __n, tmp90
	movq	-24(%rbp), %rax	# this, tmp91
	movq	%rcx, %rsi	# tmp90,
	movq	%rax, %rdi	# tmp91,
.LEHB11:
	call	_ZNSt6vectorIiSaIiEE18_M_fill_initializeEmRKi	#
.LEHE11:
.LBE10:
# /usr/include/c++/11/bits/stl_vector.h:525:       { _M_fill_initialize(__n, __value); }
	.loc 6 525 43
	jmp	.L71	#
.L70:
	endbr64	
.LBB11:
	movq	%rax, %rbx	#, tmp92
	movq	-24(%rbp), %rax	# this, _3
	movq	%rax, %rdi	# _3,
	call	_ZNSt12_Vector_baseIiSaIiEED2Ev	#
	movq	%rbx, %rax	# tmp92, D.88409
	movq	%rax, %rdi	# D.88409,
.LEHB12:
	call	_Unwind_Resume@PLT	#
.LEHE12:
.L71:
.LBE11:
	movq	-8(%rbp), %rbx	#,
	leave	
	.cfi_def_cfa 7, 8
	ret	
	.cfi_endproc
.LFE3790:
	.section	.gcc_except_table
.LLSDA3790:
	.byte	0xff
	.byte	0xff
	.byte	0x1
	.uleb128 .LLSDACSE3790-.LLSDACSB3790
.LLSDACSB3790:
	.uleb128 .LEHB10-.LFB3790
	.uleb128 .LEHE10-.LEHB10
	.uleb128 0
	.uleb128 0
	.uleb128 .LEHB11-.LFB3790
	.uleb128 .LEHE11-.LEHB11
	.uleb128 .L70-.LFB3790
	.uleb128 0
	.uleb128 .LEHB12-.LFB3790
	.uleb128 .LEHE12-.LEHB12
	.uleb128 0
	.uleb128 0
.LLSDACSE3790:
	.section	.text._ZNSt6vectorIiSaIiEEC2EmRKiRKS0_,"axG",@progbits,_ZNSt6vectorIiSaIiEEC5EmRKiRKS0_,comdat
	.size	_ZNSt6vectorIiSaIiEEC2EmRKiRKS0_, .-_ZNSt6vectorIiSaIiEEC2EmRKiRKS0_
	.weak	_ZNSt6vectorIiSaIiEEC1EmRKiRKS0_
	.set	_ZNSt6vectorIiSaIiEEC1EmRKiRKS0_,_ZNSt6vectorIiSaIiEEC2EmRKiRKS0_
	.section	.text._ZNSt6chrono20__duration_cast_implINS_8durationIlSt5ratioILl1ELl1000000000EEEES2_ILl1ELl1EElLb1ELb1EE6__castIlS3_EES4_RKNS1_IT_T0_EE,"axG",@progbits,_ZNSt6chrono20__duration_cast_implINS_8durationIlSt5ratioILl1ELl1000000000EEEES2_ILl1ELl1EElLb1ELb1EE6__castIlS3_EES4_RKNS1_IT_T0_EE,comdat
	.weak	_ZNSt6chrono20__duration_cast_implINS_8durationIlSt5ratioILl1ELl1000000000EEEES2_ILl1ELl1EElLb1ELb1EE6__castIlS3_EES4_RKNS1_IT_T0_EE
	.type	_ZNSt6chrono20__duration_cast_implINS_8durationIlSt5ratioILl1ELl1000000000EEEES2_ILl1ELl1EElLb1ELb1EE6__castIlS3_EES4_RKNS1_IT_T0_EE, @function
_ZNSt6chrono20__duration_cast_implINS_8durationIlSt5ratioILl1ELl1000000000EEEES2_ILl1ELl1EElLb1ELb1EE6__castIlS3_EES4_RKNS1_IT_T0_EE:
.LFB3795:
	.loc 3 211 4
	.cfi_startproc
	endbr64	
	pushq	%rbp	#
	.cfi_def_cfa_offset 16
	.cfi_offset 6, -16
	movq	%rsp, %rbp	#,
	.cfi_def_cfa_register 6
	subq	$48, %rsp	#,
	movq	%rdi, -40(%rbp)	# __d, __d
# /usr/include/c++/11/chrono:211: 	  __cast(const duration<_Rep, _Period>& __d)
	.loc 3 211 4
	movq	%fs:40, %rax	# MEM[(<address-space-1> long unsigned int *)40B], tmp89
	movq	%rax, -8(%rbp)	# tmp89, D.88410
	xorl	%eax, %eax	# tmp89
# /usr/include/c++/11/chrono:214: 	    return _ToDur(static_cast<__to_rep>(__d.count()));
	.loc 3 214 51
	movq	-40(%rbp), %rax	# __d, tmp85
	movq	%rax, %rdi	# tmp85,
	call	_ZNKSt6chrono8durationIlSt5ratioILl1ELl1000000000EEE5countEv	#
# /usr/include/c++/11/chrono:214: 	    return _ToDur(static_cast<__to_rep>(__d.count()));
	.loc 3 214 20
	movq	%rax, -24(%rbp)	# _1, D.85335
# /usr/include/c++/11/chrono:214: 	    return _ToDur(static_cast<__to_rep>(__d.count()));
	.loc 3 214 13
	leaq	-24(%rbp), %rdx	#, tmp86
	leaq	-16(%rbp), %rax	#, tmp87
	movq	%rdx, %rsi	# tmp86,
	movq	%rax, %rdi	# tmp87,
	call	_ZNSt6chrono8durationIlSt5ratioILl1ELl1000000000EEEC1IlvEERKT_	#
# /usr/include/c++/11/chrono:214: 	    return _ToDur(static_cast<__to_rep>(__d.count()));
	.loc 3 214 54
	movq	-16(%rbp), %rax	# D.85336, D.88311
# /usr/include/c++/11/chrono:215: 	  }
	.loc 3 215 4
	movq	-8(%rbp), %rdx	# D.88410, tmp90
	subq	%fs:40, %rdx	# MEM[(<address-space-1> long unsigned int *)40B], tmp90
	je	.L74	#,
	call	__stack_chk_fail@PLT	#
.L74:
	leave	
	.cfi_def_cfa 7, 8
	ret	
	.cfi_endproc
.LFE3795:
	.size	_ZNSt6chrono20__duration_cast_implINS_8durationIlSt5ratioILl1ELl1000000000EEEES2_ILl1ELl1EElLb1ELb1EE6__castIlS3_EES4_RKNS1_IT_T0_EE, .-_ZNSt6chrono20__duration_cast_implINS_8durationIlSt5ratioILl1ELl1000000000EEEES2_ILl1ELl1EElLb1ELb1EE6__castIlS3_EES4_RKNS1_IT_T0_EE
	.section	.text._ZN9__gnu_cxx13new_allocatorIiEC2Ev,"axG",@progbits,_ZN9__gnu_cxx13new_allocatorIiEC5Ev,comdat
	.align 2
	.weak	_ZN9__gnu_cxx13new_allocatorIiEC2Ev
	.type	_ZN9__gnu_cxx13new_allocatorIiEC2Ev, @function
_ZN9__gnu_cxx13new_allocatorIiEC2Ev:
.LFB3887:
	.file 7 "/usr/include/c++/11/ext/new_allocator.h"
	.loc 7 79 7
	.cfi_startproc
	endbr64	
	pushq	%rbp	#
	.cfi_def_cfa_offset 16
	.cfi_offset 6, -16
	movq	%rsp, %rbp	#,
	.cfi_def_cfa_register 6
	movq	%rdi, -8(%rbp)	# this, this
# /usr/include/c++/11/ext/new_allocator.h:79:       new_allocator() _GLIBCXX_USE_NOEXCEPT { }
	.loc 7 79 47
	nop	
	popq	%rbp	#
	.cfi_def_cfa 7, 8
	ret	
	.cfi_endproc
.LFE3887:
	.size	_ZN9__gnu_cxx13new_allocatorIiEC2Ev, .-_ZN9__gnu_cxx13new_allocatorIiEC2Ev
	.weak	_ZN9__gnu_cxx13new_allocatorIiEC1Ev
	.set	_ZN9__gnu_cxx13new_allocatorIiEC1Ev,_ZN9__gnu_cxx13new_allocatorIiEC2Ev
	.section	.text._ZN9__gnu_cxx13new_allocatorIiED2Ev,"axG",@progbits,_ZN9__gnu_cxx13new_allocatorIiED5Ev,comdat
	.align 2
	.weak	_ZN9__gnu_cxx13new_allocatorIiED2Ev
	.type	_ZN9__gnu_cxx13new_allocatorIiED2Ev, @function
_ZN9__gnu_cxx13new_allocatorIiED2Ev:
.LFB3890:
	.loc 7 89 7
	.cfi_startproc
	endbr64	
	pushq	%rbp	#
	.cfi_def_cfa_offset 16
	.cfi_offset 6, -16
	movq	%rsp, %rbp	#,
	.cfi_def_cfa_register 6
	movq	%rdi, -8(%rbp)	# this, this
# /usr/include/c++/11/ext/new_allocator.h:89:       ~new_allocator() _GLIBCXX_USE_NOEXCEPT { }
	.loc 7 89 48
	nop	
	popq	%rbp	#
	.cfi_def_cfa 7, 8
	ret	
	.cfi_endproc
.LFE3890:
	.size	_ZN9__gnu_cxx13new_allocatorIiED2Ev, .-_ZN9__gnu_cxx13new_allocatorIiED2Ev
	.weak	_ZN9__gnu_cxx13new_allocatorIiED1Ev
	.set	_ZN9__gnu_cxx13new_allocatorIiED1Ev,_ZN9__gnu_cxx13new_allocatorIiED2Ev
	.section	.rodata
	.align 8
.LC10:
	.string	"cannot create std::vector larger than max_size()"
	.section	.text._ZNSt6vectorIiSaIiEE17_S_check_init_lenEmRKS0_,"axG",@progbits,_ZNSt6vectorIiSaIiEE17_S_check_init_lenEmRKS0_,comdat
	.weak	_ZNSt6vectorIiSaIiEE17_S_check_init_lenEmRKS0_
	.type	_ZNSt6vectorIiSaIiEE17_S_check_init_lenEmRKS0_, @function
_ZNSt6vectorIiSaIiEE17_S_check_init_lenEmRKS0_:
.LFB3892:
	.loc 6 1767 7
	.cfi_startproc
	endbr64	
	pushq	%rbp	#
	.cfi_def_cfa_offset 16
	.cfi_offset 6, -16
	movq	%rsp, %rbp	#,
	.cfi_def_cfa_register 6
	pushq	%rbx	#
	subq	$40, %rsp	#,
	.cfi_offset 3, -24
	movq	%rdi, -40(%rbp)	# __n, __n
	movq	%rsi, -48(%rbp)	# __a, __a
# /usr/include/c++/11/bits/stl_vector.h:1767:       _S_check_init_len(size_type __n, const allocator_type& __a)
	.loc 6 1767 7
	movq	%fs:40, %rax	# MEM[(<address-space-1> long unsigned int *)40B], tmp92
	movq	%rax, -24(%rbp)	# tmp92, D.88411
	xorl	%eax, %eax	# tmp92
# /usr/include/c++/11/bits/stl_vector.h:1769: 	if (__n > _S_max_size(_Tp_alloc_type(__a)))
	.loc 6 1769 24
	movq	-48(%rbp), %rdx	# __a, tmp86
	leaq	-25(%rbp), %rax	#, tmp87
	movq	%rdx, %rsi	# tmp86,
	movq	%rax, %rdi	# tmp87,
	call	_ZNSaIiEC1ERKS_	#
# /usr/include/c++/11/bits/stl_vector.h:1769: 	if (__n > _S_max_size(_Tp_alloc_type(__a)))
	.loc 6 1769 23
	leaq	-25(%rbp), %rax	#, tmp88
	movq	%rax, %rdi	# tmp88,
	call	_ZNSt6vectorIiSaIiEE11_S_max_sizeERKS0_	#
# /usr/include/c++/11/bits/stl_vector.h:1769: 	if (__n > _S_max_size(_Tp_alloc_type(__a)))
	.loc 6 1769 10
	cmpq	%rax, -40(%rbp)	# _1, __n
	seta	%bl	#, retval.0_7
# /usr/include/c++/11/bits/stl_vector.h:1769: 	if (__n > _S_max_size(_Tp_alloc_type(__a)))
	.loc 6 1769 24
	leaq	-25(%rbp), %rax	#, tmp89
	movq	%rax, %rdi	# tmp89,
	call	_ZNSaIiED1Ev	#
# /usr/include/c++/11/bits/stl_vector.h:1769: 	if (__n > _S_max_size(_Tp_alloc_type(__a)))
	.loc 6 1769 2
	testb	%bl, %bl	# retval.0_7
	je	.L78	#,
# /usr/include/c++/11/bits/stl_vector.h:1770: 	  __throw_length_error(
	.loc 6 1770 24
	leaq	.LC10(%rip), %rax	#, tmp90
	movq	%rax, %rdi	# tmp90,
	call	_ZSt20__throw_length_errorPKc@PLT	#
.L78:
# /usr/include/c++/11/bits/stl_vector.h:1772: 	return __n;
	.loc 6 1772 9
	movq	-40(%rbp), %rax	# __n, _10
# /usr/include/c++/11/bits/stl_vector.h:1773:       }
	.loc 6 1773 7
	movq	-24(%rbp), %rdx	# D.88411, tmp93
	subq	%fs:40, %rdx	# MEM[(<address-space-1> long unsigned int *)40B], tmp93
	je	.L80	#,
	call	__stack_chk_fail@PLT	#
.L80:
	movq	-8(%rbp), %rbx	#,
	leave	
	.cfi_def_cfa 7, 8
	ret	
	.cfi_endproc
.LFE3892:
	.size	_ZNSt6vectorIiSaIiEE17_S_check_init_lenEmRKS0_, .-_ZNSt6vectorIiSaIiEE17_S_check_init_lenEmRKS0_
	.section	.text._ZNSt12_Vector_baseIiSaIiEE12_Vector_implD2Ev,"axG",@progbits,_ZNSt12_Vector_baseIiSaIiEE12_Vector_implD5Ev,comdat
	.align 2
	.weak	_ZNSt12_Vector_baseIiSaIiEE12_Vector_implD2Ev
	.type	_ZNSt12_Vector_baseIiSaIiEE12_Vector_implD2Ev, @function
_ZNSt12_Vector_baseIiSaIiEE12_Vector_implD2Ev:
.LFB3895:
	.loc 6 128 14
	.cfi_startproc
	endbr64	
	pushq	%rbp	#
	.cfi_def_cfa_offset 16
	.cfi_offset 6, -16
	movq	%rsp, %rbp	#,
	.cfi_def_cfa_register 6
	subq	$16, %rsp	#,
	movq	%rdi, -8(%rbp)	# this, this
.LBB12:
# /usr/include/c++/11/bits/stl_vector.h:128:       struct _Vector_impl
	.loc 6 128 14
	movq	-8(%rbp), %rax	# this, tmp82
	movq	%rax, %rdi	# tmp82,
	call	_ZNSaIiED2Ev	#
.LBE12:
	nop	
	leave	
	.cfi_def_cfa 7, 8
	ret	
	.cfi_endproc
.LFE3895:
	.size	_ZNSt12_Vector_baseIiSaIiEE12_Vector_implD2Ev, .-_ZNSt12_Vector_baseIiSaIiEE12_Vector_implD2Ev
	.weak	_ZNSt12_Vector_baseIiSaIiEE12_Vector_implD1Ev
	.set	_ZNSt12_Vector_baseIiSaIiEE12_Vector_implD1Ev,_ZNSt12_Vector_baseIiSaIiEE12_Vector_implD2Ev
	.section	.text._ZNSt12_Vector_baseIiSaIiEEC2EmRKS0_,"axG",@progbits,_ZNSt12_Vector_baseIiSaIiEEC5EmRKS0_,comdat
	.align 2
	.weak	_ZNSt12_Vector_baseIiSaIiEEC2EmRKS0_
	.type	_ZNSt12_Vector_baseIiSaIiEEC2EmRKS0_, @function
_ZNSt12_Vector_baseIiSaIiEEC2EmRKS0_:
.LFB3897:
	.loc 6 303 7
	.cfi_startproc
	.cfi_personality 0x9b,DW.ref.__gxx_personality_v0
	.cfi_lsda 0x1b,.LLSDA3897
	endbr64	
	pushq	%rbp	#
	.cfi_def_cfa_offset 16
	.cfi_offset 6, -16
	movq	%rsp, %rbp	#,
	.cfi_def_cfa_register 6
	pushq	%rbx	#
	subq	$40, %rsp	#,
	.cfi_offset 3, -24
	movq	%rdi, -24(%rbp)	# this, this
	movq	%rsi, -32(%rbp)	# __n, __n
	movq	%rdx, -40(%rbp)	# __a, __a
.LBB13:
# /usr/include/c++/11/bits/stl_vector.h:304:       : _M_impl(__a)
	.loc 6 304 9
	movq	-24(%rbp), %rax	# this, _1
	movq	-40(%rbp), %rdx	# __a, tmp85
	movq	%rdx, %rsi	# tmp85,
	movq	%rax, %rdi	# _1,
	call	_ZNSt12_Vector_baseIiSaIiEE12_Vector_implC1ERKS0_	#
# /usr/include/c++/11/bits/stl_vector.h:305:       { _M_create_storage(__n); }
	.loc 6 305 26
	movq	-32(%rbp), %rdx	# __n, tmp86
	movq	-24(%rbp), %rax	# this, tmp87
	movq	%rdx, %rsi	# tmp86,
	movq	%rax, %rdi	# tmp87,
.LEHB13:
	call	_ZNSt12_Vector_baseIiSaIiEE17_M_create_storageEm	#
.LEHE13:
.LBE13:
# /usr/include/c++/11/bits/stl_vector.h:305:       { _M_create_storage(__n); }
	.loc 6 305 33
	jmp	.L85	#
.L84:
	endbr64	
.LBB14:
	movq	%rax, %rbx	#, tmp88
	movq	-24(%rbp), %rax	# this, _2
	movq	%rax, %rdi	# _2,
	call	_ZNSt12_Vector_baseIiSaIiEE12_Vector_implD1Ev	#
	movq	%rbx, %rax	# tmp88, D.88413
	movq	%rax, %rdi	# D.88413,
.LEHB14:
	call	_Unwind_Resume@PLT	#
.LEHE14:
.L85:
.LBE14:
	movq	-8(%rbp), %rbx	#,
	leave	
	.cfi_def_cfa 7, 8
	ret	
	.cfi_endproc
.LFE3897:
	.section	.gcc_except_table
.LLSDA3897:
	.byte	0xff
	.byte	0xff
	.byte	0x1
	.uleb128 .LLSDACSE3897-.LLSDACSB3897
.LLSDACSB3897:
	.uleb128 .LEHB13-.LFB3897
	.uleb128 .LEHE13-.LEHB13
	.uleb128 .L84-.LFB3897
	.uleb128 0
	.uleb128 .LEHB14-.LFB3897
	.uleb128 .LEHE14-.LEHB14
	.uleb128 0
	.uleb128 0
.LLSDACSE3897:
	.section	.text._ZNSt12_Vector_baseIiSaIiEEC2EmRKS0_,"axG",@progbits,_ZNSt12_Vector_baseIiSaIiEEC5EmRKS0_,comdat
	.size	_ZNSt12_Vector_baseIiSaIiEEC2EmRKS0_, .-_ZNSt12_Vector_baseIiSaIiEEC2EmRKS0_
	.weak	_ZNSt12_Vector_baseIiSaIiEEC1EmRKS0_
	.set	_ZNSt12_Vector_baseIiSaIiEEC1EmRKS0_,_ZNSt12_Vector_baseIiSaIiEEC2EmRKS0_
	.section	.text._ZNSt12_Vector_baseIiSaIiEED2Ev,"axG",@progbits,_ZNSt12_Vector_baseIiSaIiEED5Ev,comdat
	.align 2
	.weak	_ZNSt12_Vector_baseIiSaIiEED2Ev
	.type	_ZNSt12_Vector_baseIiSaIiEED2Ev, @function
_ZNSt12_Vector_baseIiSaIiEED2Ev:
.LFB3900:
	.loc 6 333 7
	.cfi_startproc
	.cfi_personality 0x9b,DW.ref.__gxx_personality_v0
	.cfi_lsda 0x1b,.LLSDA3900
	endbr64	
	pushq	%rbp	#
	.cfi_def_cfa_offset 16
	.cfi_offset 6, -16
	movq	%rsp, %rbp	#,
	.cfi_def_cfa_register 6
	subq	$16, %rsp	#,
	movq	%rdi, -8(%rbp)	# this, this
.LBB15:
# /usr/include/c++/11/bits/stl_vector.h:336: 		      _M_impl._M_end_of_storage - _M_impl._M_start);
	.loc 6 336 17
	movq	-8(%rbp), %rax	# this, tmp89
	movq	16(%rax), %rdx	# this_9(D)->_M_impl.D.81196._M_end_of_storage, _1
# /usr/include/c++/11/bits/stl_vector.h:336: 		      _M_impl._M_end_of_storage - _M_impl._M_start);
	.loc 6 336 45
	movq	-8(%rbp), %rax	# this, tmp90
	movq	(%rax), %rcx	# this_9(D)->_M_impl.D.81196._M_start, _2
# /usr/include/c++/11/bits/stl_vector.h:336: 		      _M_impl._M_end_of_storage - _M_impl._M_start);
	.loc 6 336 35
	movq	%rdx, %rax	# _1, _1
	subq	%rcx, %rax	# _2, _1
	sarq	$2, %rax	#, tmp91
# /usr/include/c++/11/bits/stl_vector.h:335: 	_M_deallocate(_M_impl._M_start,
	.loc 6 335 15
	movq	%rax, %rdx	# _4, _5
	movq	-8(%rbp), %rax	# this, tmp92
	movq	(%rax), %rcx	# this_9(D)->_M_impl.D.81196._M_start, _6
	movq	-8(%rbp), %rax	# this, tmp93
	movq	%rcx, %rsi	# _6,
	movq	%rax, %rdi	# tmp93,
	call	_ZNSt12_Vector_baseIiSaIiEE13_M_deallocateEPim	#
# /usr/include/c++/11/bits/stl_vector.h:337:       }
	.loc 6 337 7
	movq	-8(%rbp), %rax	# this, _7
	movq	%rax, %rdi	# _7,
	call	_ZNSt12_Vector_baseIiSaIiEE12_Vector_implD1Ev	#
.LBE15:
	nop	
	leave	
	.cfi_def_cfa 7, 8
	ret	
	.cfi_endproc
.LFE3900:
	.section	.gcc_except_table
.LLSDA3900:
	.byte	0xff
	.byte	0xff
	.byte	0x1
	.uleb128 .LLSDACSE3900-.LLSDACSB3900
.LLSDACSB3900:
.LLSDACSE3900:
	.section	.text._ZNSt12_Vector_baseIiSaIiEED2Ev,"axG",@progbits,_ZNSt12_Vector_baseIiSaIiEED5Ev,comdat
	.size	_ZNSt12_Vector_baseIiSaIiEED2Ev, .-_ZNSt12_Vector_baseIiSaIiEED2Ev
	.weak	_ZNSt12_Vector_baseIiSaIiEED1Ev
	.set	_ZNSt12_Vector_baseIiSaIiEED1Ev,_ZNSt12_Vector_baseIiSaIiEED2Ev
	.section	.text._ZNSt6vectorIiSaIiEE21_M_default_initializeEm,"axG",@progbits,_ZNSt6vectorIiSaIiEE21_M_default_initializeEm,comdat
	.align 2
	.weak	_ZNSt6vectorIiSaIiEE21_M_default_initializeEm
	.type	_ZNSt6vectorIiSaIiEE21_M_default_initializeEm, @function
_ZNSt6vectorIiSaIiEE21_M_default_initializeEm:
.LFB3902:
	.loc 6 1603 7
	.cfi_startproc
	endbr64	
	pushq	%rbp	#
	.cfi_def_cfa_offset 16
	.cfi_offset 6, -16
	movq	%rsp, %rbp	#,
	.cfi_def_cfa_register 6
	subq	$16, %rsp	#,
	movq	%rdi, -8(%rbp)	# this, this
	movq	%rsi, -16(%rbp)	# __n, __n
# /usr/include/c++/11/bits/stl_vector.h:1607: 					   _M_get_Tp_allocator());
	.loc 6 1607 28
	movq	-8(%rbp), %rax	# this, _1
	movq	%rax, %rdi	# _1,
	call	_ZNSt12_Vector_baseIiSaIiEE19_M_get_Tp_allocatorEv	#
	movq	%rax, %rdx	#, _2
# /usr/include/c++/11/bits/stl_vector.h:1606: 	  std::__uninitialized_default_n_a(this->_M_impl._M_start, __n,
	.loc 6 1606 36
	movq	-8(%rbp), %rax	# this, tmp86
	movq	(%rax), %rax	# this_5(D)->D.81883._M_impl.D.81196._M_start, _3
	movq	-16(%rbp), %rcx	# __n, tmp87
	movq	%rcx, %rsi	# tmp87,
	movq	%rax, %rdi	# _3,
	call	_ZSt27__uninitialized_default_n_aIPimiET_S1_T0_RSaIT1_E	#
# /usr/include/c++/11/bits/stl_vector.h:1605: 	this->_M_impl._M_finish =
	.loc 6 1605 26
	movq	-8(%rbp), %rdx	# this, tmp88
	movq	%rax, 8(%rdx)	# _4, this_5(D)->D.81883._M_impl.D.81196._M_finish
# /usr/include/c++/11/bits/stl_vector.h:1608:       }
	.loc 6 1608 7
	nop	
	leave	
	.cfi_def_cfa 7, 8
	ret	
	.cfi_endproc
.LFE3902:
	.size	_ZNSt6vectorIiSaIiEE21_M_default_initializeEm, .-_ZNSt6vectorIiSaIiEE21_M_default_initializeEm
	.section	.text._ZNSt12_Vector_baseIiSaIiEE19_M_get_Tp_allocatorEv,"axG",@progbits,_ZNSt12_Vector_baseIiSaIiEE19_M_get_Tp_allocatorEv,comdat
	.align 2
	.weak	_ZNSt12_Vector_baseIiSaIiEE19_M_get_Tp_allocatorEv
	.type	_ZNSt12_Vector_baseIiSaIiEE19_M_get_Tp_allocatorEv, @function
_ZNSt12_Vector_baseIiSaIiEE19_M_get_Tp_allocatorEv:
.LFB3903:
	.loc 6 276 7
	.cfi_startproc
	endbr64	
	pushq	%rbp	#
	.cfi_def_cfa_offset 16
	.cfi_offset 6, -16
	movq	%rsp, %rbp	#,
	.cfi_def_cfa_register 6
	movq	%rdi, -8(%rbp)	# this, this
# /usr/include/c++/11/bits/stl_vector.h:277:       { return this->_M_impl; }
	.loc 6 277 22
	movq	-8(%rbp), %rax	# this, _2
# /usr/include/c++/11/bits/stl_vector.h:277:       { return this->_M_impl; }
	.loc 6 277 31
	popq	%rbp	#
	.cfi_def_cfa 7, 8
	ret	
	.cfi_endproc
.LFE3903:
	.size	_ZNSt12_Vector_baseIiSaIiEE19_M_get_Tp_allocatorEv, .-_ZNSt12_Vector_baseIiSaIiEE19_M_get_Tp_allocatorEv
	.section	.text._ZSt8_DestroyIPiiEvT_S1_RSaIT0_E,"axG",@progbits,_ZSt8_DestroyIPiiEvT_S1_RSaIT0_E,comdat
	.weak	_ZSt8_DestroyIPiiEvT_S1_RSaIT0_E
	.type	_ZSt8_DestroyIPiiEvT_S1_RSaIT0_E, @function
_ZSt8_DestroyIPiiEvT_S1_RSaIT0_E:
.LFB3904:
	.file 8 "/usr/include/c++/11/bits/alloc_traits.h"
	.loc 8 845 5
	.cfi_startproc
	endbr64	
	pushq	%rbp	#
	.cfi_def_cfa_offset 16
	.cfi_offset 6, -16
	movq	%rsp, %rbp	#,
	.cfi_def_cfa_register 6
	subq	$32, %rsp	#,
	movq	%rdi, -8(%rbp)	# __first, __first
	movq	%rsi, -16(%rbp)	# __last, __last
	movq	%rdx, -24(%rbp)	# D.85832, D.85832
# /usr/include/c++/11/bits/alloc_traits.h:848:       _Destroy(__first, __last);
	.loc 8 848 15
	movq	-16(%rbp), %rdx	# __last, tmp82
	movq	-8(%rbp), %rax	# __first, tmp83
	movq	%rdx, %rsi	# tmp82,
	movq	%rax, %rdi	# tmp83,
	call	_ZSt8_DestroyIPiEvT_S1_	#
# /usr/include/c++/11/bits/alloc_traits.h:849:     }
	.loc 8 849 5
	nop	
	leave	
	.cfi_def_cfa 7, 8
	ret	
	.cfi_endproc
.LFE3904:
	.size	_ZSt8_DestroyIPiiEvT_S1_RSaIT0_E, .-_ZSt8_DestroyIPiiEvT_S1_RSaIT0_E
	.section	.text._ZNSt6vectorIiSaIiEE18_M_fill_initializeEmRKi,"axG",@progbits,_ZNSt6vectorIiSaIiEE18_M_fill_initializeEmRKi,comdat
	.align 2
	.weak	_ZNSt6vectorIiSaIiEE18_M_fill_initializeEmRKi
	.type	_ZNSt6vectorIiSaIiEE18_M_fill_initializeEmRKi, @function
_ZNSt6vectorIiSaIiEE18_M_fill_initializeEmRKi:
.LFB3905:
	.loc 6 1593 7
	.cfi_startproc
	endbr64	
	pushq	%rbp	#
	.cfi_def_cfa_offset 16
	.cfi_offset 6, -16
	movq	%rsp, %rbp	#,
	.cfi_def_cfa_register 6
	subq	$32, %rsp	#,
	movq	%rdi, -8(%rbp)	# this, this
	movq	%rsi, -16(%rbp)	# __n, __n
	movq	%rdx, -24(%rbp)	# __value, __value
# /usr/include/c++/11/bits/stl_vector.h:1597: 					_M_get_Tp_allocator());
	.loc 6 1597 25
	movq	-8(%rbp), %rax	# this, _1
	movq	%rax, %rdi	# _1,
	call	_ZNSt12_Vector_baseIiSaIiEE19_M_get_Tp_allocatorEv	#
	movq	%rax, %rcx	#, _2
# /usr/include/c++/11/bits/stl_vector.h:1596: 	  std::__uninitialized_fill_n_a(this->_M_impl._M_start, __n, __value,
	.loc 6 1596 33
	movq	-8(%rbp), %rax	# this, tmp86
	movq	(%rax), %rax	# this_5(D)->D.81883._M_impl.D.81196._M_start, _3
	movq	-24(%rbp), %rdx	# __value, tmp87
	movq	-16(%rbp), %rsi	# __n, tmp88
	movq	%rax, %rdi	# _3,
	call	_ZSt24__uninitialized_fill_n_aIPimiiET_S1_T0_RKT1_RSaIT2_E	#
# /usr/include/c++/11/bits/stl_vector.h:1595: 	this->_M_impl._M_finish =
	.loc 6 1595 26
	movq	-8(%rbp), %rdx	# this, tmp89
	movq	%rax, 8(%rdx)	# _4, this_5(D)->D.81883._M_impl.D.81196._M_finish
# /usr/include/c++/11/bits/stl_vector.h:1598:       }
	.loc 6 1598 7
	nop	
	leave	
	.cfi_def_cfa 7, 8
	ret	
	.cfi_endproc
.LFE3905:
	.size	_ZNSt6vectorIiSaIiEE18_M_fill_initializeEmRKi, .-_ZNSt6vectorIiSaIiEE18_M_fill_initializeEmRKi
	.section	.text._ZNSt6vectorIiSaIiEE11_S_max_sizeERKS0_,"axG",@progbits,_ZNSt6vectorIiSaIiEE11_S_max_sizeERKS0_,comdat
	.weak	_ZNSt6vectorIiSaIiEE11_S_max_sizeERKS0_
	.type	_ZNSt6vectorIiSaIiEE11_S_max_sizeERKS0_, @function
_ZNSt6vectorIiSaIiEE11_S_max_sizeERKS0_:
.LFB3946:
	.loc 6 1776 7
	.cfi_startproc
	endbr64	
	pushq	%rbp	#
	.cfi_def_cfa_offset 16
	.cfi_offset 6, -16
	movq	%rsp, %rbp	#,
	.cfi_def_cfa_register 6
	subq	$48, %rsp	#,
	movq	%rdi, -40(%rbp)	# __a, __a
# /usr/include/c++/11/bits/stl_vector.h:1776:       _S_max_size(const _Tp_alloc_type& __a) _GLIBCXX_NOEXCEPT
	.loc 6 1776 7
	movq	%fs:40, %rax	# MEM[(<address-space-1> long unsigned int *)40B], tmp90
	movq	%rax, -8(%rbp)	# tmp90, D.88414
	xorl	%eax, %eax	# tmp90
# /usr/include/c++/11/bits/stl_vector.h:1781: 	const size_t __diffmax
	.loc 6 1781 15
	movabsq	$2305843009213693951, %rax	#, tmp93
	movq	%rax, -24(%rbp)	# tmp93, __diffmax
# /usr/include/c++/11/bits/stl_vector.h:1783: 	const size_t __allocmax = _Alloc_traits::max_size(__a);
	.loc 6 1783 51
	movq	-40(%rbp), %rax	# __a, tmp86
	movq	%rax, %rdi	# tmp86,
	call	_ZNSt16allocator_traitsISaIiEE8max_sizeERKS0_	#
# /usr/include/c++/11/bits/stl_vector.h:1783: 	const size_t __allocmax = _Alloc_traits::max_size(__a);
	.loc 6 1783 15
	movq	%rax, -16(%rbp)	# _1, __allocmax
# /usr/include/c++/11/bits/stl_vector.h:1784: 	return (std::min)(__diffmax, __allocmax);
	.loc 6 1784 19
	leaq	-16(%rbp), %rdx	#, tmp87
	leaq	-24(%rbp), %rax	#, tmp88
	movq	%rdx, %rsi	# tmp87,
	movq	%rax, %rdi	# tmp88,
	call	_ZSt3minImERKT_S2_S2_	#
# /usr/include/c++/11/bits/stl_vector.h:1784: 	return (std::min)(__diffmax, __allocmax);
	.loc 6 1784 41
	movq	(%rax), %rax	# *_2, _9
# /usr/include/c++/11/bits/stl_vector.h:1785:       }
	.loc 6 1785 7
	movq	-8(%rbp), %rdx	# D.88414, tmp91
	subq	%fs:40, %rdx	# MEM[(<address-space-1> long unsigned int *)40B], tmp91
	je	.L94	#,
	call	__stack_chk_fail@PLT	#
.L94:
	leave	
	.cfi_def_cfa 7, 8
	ret	
	.cfi_endproc
.LFE3946:
	.size	_ZNSt6vectorIiSaIiEE11_S_max_sizeERKS0_, .-_ZNSt6vectorIiSaIiEE11_S_max_sizeERKS0_
	.section	.text._ZNSaIiEC2ERKS_,"axG",@progbits,_ZNSaIiEC5ERKS_,comdat
	.align 2
	.weak	_ZNSaIiEC2ERKS_
	.type	_ZNSaIiEC2ERKS_, @function
_ZNSaIiEC2ERKS_:
.LFB3948:
	.loc 5 159 7
	.cfi_startproc
	endbr64	
	pushq	%rbp	#
	.cfi_def_cfa_offset 16
	.cfi_offset 6, -16
	movq	%rsp, %rbp	#,
	.cfi_def_cfa_register 6
	subq	$16, %rsp	#,
	movq	%rdi, -8(%rbp)	# this, this
	movq	%rsi, -16(%rbp)	# __a, __a
.LBB16:
# /usr/include/c++/11/bits/allocator.h:160:       : __allocator_base<_Tp>(__a) { }
	.loc 5 160 34
	movq	-16(%rbp), %rdx	# __a, tmp82
	movq	-8(%rbp), %rax	# this, tmp83
	movq	%rdx, %rsi	# tmp82,
	movq	%rax, %rdi	# tmp83,
	call	_ZN9__gnu_cxx13new_allocatorIiEC2ERKS1_	#
.LBE16:
# /usr/include/c++/11/bits/allocator.h:160:       : __allocator_base<_Tp>(__a) { }
	.loc 5 160 38
	nop	
	leave	
	.cfi_def_cfa 7, 8
	ret	
	.cfi_endproc
.LFE3948:
	.size	_ZNSaIiEC2ERKS_, .-_ZNSaIiEC2ERKS_
	.weak	_ZNSaIiEC1ERKS_
	.set	_ZNSaIiEC1ERKS_,_ZNSaIiEC2ERKS_
	.section	.text._ZNSt12_Vector_baseIiSaIiEE12_Vector_implC2ERKS0_,"axG",@progbits,_ZNSt12_Vector_baseIiSaIiEE12_Vector_implC5ERKS0_,comdat
	.align 2
	.weak	_ZNSt12_Vector_baseIiSaIiEE12_Vector_implC2ERKS0_
	.type	_ZNSt12_Vector_baseIiSaIiEE12_Vector_implC2ERKS0_, @function
_ZNSt12_Vector_baseIiSaIiEE12_Vector_implC2ERKS0_:
.LFB3951:
	.loc 6 136 2
	.cfi_startproc
	endbr64	
	pushq	%rbp	#
	.cfi_def_cfa_offset 16
	.cfi_offset 6, -16
	movq	%rsp, %rbp	#,
	.cfi_def_cfa_register 6
	subq	$16, %rsp	#,
	movq	%rdi, -8(%rbp)	# this, this
	movq	%rsi, -16(%rbp)	# __a, __a
.LBB17:
# /usr/include/c++/11/bits/stl_vector.h:137: 	: _Tp_alloc_type(__a)
	.loc 6 137 22
	movq	-16(%rbp), %rdx	# __a, tmp83
	movq	-8(%rbp), %rax	# this, tmp84
	movq	%rdx, %rsi	# tmp83,
	movq	%rax, %rdi	# tmp84,
	call	_ZNSaIiEC2ERKS_	#
	movq	-8(%rbp), %rax	# this, _1
	movq	%rax, %rdi	# _1,
	call	_ZNSt12_Vector_baseIiSaIiEE17_Vector_impl_dataC2Ev	#
.LBE17:
# /usr/include/c++/11/bits/stl_vector.h:138: 	{ }
	.loc 6 138 4
	nop	
	leave	
	.cfi_def_cfa 7, 8
	ret	
	.cfi_endproc
.LFE3951:
	.size	_ZNSt12_Vector_baseIiSaIiEE12_Vector_implC2ERKS0_, .-_ZNSt12_Vector_baseIiSaIiEE12_Vector_implC2ERKS0_
	.weak	_ZNSt12_Vector_baseIiSaIiEE12_Vector_implC1ERKS0_
	.set	_ZNSt12_Vector_baseIiSaIiEE12_Vector_implC1ERKS0_,_ZNSt12_Vector_baseIiSaIiEE12_Vector_implC2ERKS0_
	.section	.text._ZNSt12_Vector_baseIiSaIiEE17_M_create_storageEm,"axG",@progbits,_ZNSt12_Vector_baseIiSaIiEE17_M_create_storageEm,comdat
	.align 2
	.weak	_ZNSt12_Vector_baseIiSaIiEE17_M_create_storageEm
	.type	_ZNSt12_Vector_baseIiSaIiEE17_M_create_storageEm, @function
_ZNSt12_Vector_baseIiSaIiEE17_M_create_storageEm:
.LFB3953:
	.loc 6 359 7
	.cfi_startproc
	endbr64	
	pushq	%rbp	#
	.cfi_def_cfa_offset 16
	.cfi_offset 6, -16
	movq	%rsp, %rbp	#,
	.cfi_def_cfa_register 6
	subq	$16, %rsp	#,
	movq	%rdi, -8(%rbp)	# this, this
	movq	%rsi, -16(%rbp)	# __n, __n
# /usr/include/c++/11/bits/stl_vector.h:361: 	this->_M_impl._M_start = this->_M_allocate(__n);
	.loc 6 361 44
	movq	-16(%rbp), %rdx	# __n, tmp87
	movq	-8(%rbp), %rax	# this, tmp88
	movq	%rdx, %rsi	# tmp87,
	movq	%rax, %rdi	# tmp88,
	call	_ZNSt12_Vector_baseIiSaIiEE11_M_allocateEm	#
# /usr/include/c++/11/bits/stl_vector.h:361: 	this->_M_impl._M_start = this->_M_allocate(__n);
	.loc 6 361 25
	movq	-8(%rbp), %rdx	# this, tmp89
	movq	%rax, (%rdx)	# _1, this_7(D)->_M_impl.D.81196._M_start
# /usr/include/c++/11/bits/stl_vector.h:362: 	this->_M_impl._M_finish = this->_M_impl._M_start;
	.loc 6 362 42
	movq	-8(%rbp), %rax	# this, tmp90
	movq	(%rax), %rdx	# this_7(D)->_M_impl.D.81196._M_start, _2
# /usr/include/c++/11/bits/stl_vector.h:362: 	this->_M_impl._M_finish = this->_M_impl._M_start;
	.loc 6 362 26
	movq	-8(%rbp), %rax	# this, tmp91
	movq	%rdx, 8(%rax)	# _2, this_7(D)->_M_impl.D.81196._M_finish
# /usr/include/c++/11/bits/stl_vector.h:363: 	this->_M_impl._M_end_of_storage = this->_M_impl._M_start + __n;
	.loc 6 363 50
	movq	-8(%rbp), %rax	# this, tmp92
	movq	(%rax), %rdx	# this_7(D)->_M_impl.D.81196._M_start, _3
# /usr/include/c++/11/bits/stl_vector.h:363: 	this->_M_impl._M_end_of_storage = this->_M_impl._M_start + __n;
	.loc 6 363 59
	movq	-16(%rbp), %rax	# __n, tmp93
	salq	$2, %rax	#, _4
	addq	%rax, %rdx	# _4, _5
# /usr/include/c++/11/bits/stl_vector.h:363: 	this->_M_impl._M_end_of_storage = this->_M_impl._M_start + __n;
	.loc 6 363 34
	movq	-8(%rbp), %rax	# this, tmp94
	movq	%rdx, 16(%rax)	# _5, this_7(D)->_M_impl.D.81196._M_end_of_storage
# /usr/include/c++/11/bits/stl_vector.h:364:       }
	.loc 6 364 7
	nop	
	leave	
	.cfi_def_cfa 7, 8
	ret	
	.cfi_endproc
.LFE3953:
	.size	_ZNSt12_Vector_baseIiSaIiEE17_M_create_storageEm, .-_ZNSt12_Vector_baseIiSaIiEE17_M_create_storageEm
	.section	.text._ZNSt12_Vector_baseIiSaIiEE13_M_deallocateEPim,"axG",@progbits,_ZNSt12_Vector_baseIiSaIiEE13_M_deallocateEPim,comdat
	.align 2
	.weak	_ZNSt12_Vector_baseIiSaIiEE13_M_deallocateEPim
	.type	_ZNSt12_Vector_baseIiSaIiEE13_M_deallocateEPim, @function
_ZNSt12_Vector_baseIiSaIiEE13_M_deallocateEPim:
.LFB3954:
	.loc 6 350 7
	.cfi_startproc
	endbr64	
	pushq	%rbp	#
	.cfi_def_cfa_offset 16
	.cfi_offset 6, -16
	movq	%rsp, %rbp	#,
	.cfi_def_cfa_register 6
	subq	$32, %rsp	#,
	movq	%rdi, -8(%rbp)	# this, this
	movq	%rsi, -16(%rbp)	# __p, __p
	movq	%rdx, -24(%rbp)	# __n, __n
# /usr/include/c++/11/bits/stl_vector.h:353: 	if (__p)
	.loc 6 353 2
	cmpq	$0, -16(%rbp)	#, __p
	je	.L100	#,
# /usr/include/c++/11/bits/stl_vector.h:354: 	  _Tr::deallocate(_M_impl, __p, __n);
	.loc 6 354 20
	movq	-8(%rbp), %rax	# this, _1
# /usr/include/c++/11/bits/stl_vector.h:354: 	  _Tr::deallocate(_M_impl, __p, __n);
	.loc 6 354 19
	movq	-24(%rbp), %rdx	# __n, tmp83
	movq	-16(%rbp), %rcx	# __p, tmp84
	movq	%rcx, %rsi	# tmp84,
	movq	%rax, %rdi	# _1,
	call	_ZNSt16allocator_traitsISaIiEE10deallocateERS0_Pim	#
.L100:
# /usr/include/c++/11/bits/stl_vector.h:355:       }
	.loc 6 355 7
	nop	
	leave	
	.cfi_def_cfa 7, 8
	ret	
	.cfi_endproc
.LFE3954:
	.size	_ZNSt12_Vector_baseIiSaIiEE13_M_deallocateEPim, .-_ZNSt12_Vector_baseIiSaIiEE13_M_deallocateEPim
	.section	.text._ZSt27__uninitialized_default_n_aIPimiET_S1_T0_RSaIT1_E,"axG",@progbits,_ZSt27__uninitialized_default_n_aIPimiET_S1_T0_RSaIT1_E,comdat
	.weak	_ZSt27__uninitialized_default_n_aIPimiET_S1_T0_RSaIT1_E
	.type	_ZSt27__uninitialized_default_n_aIPimiET_S1_T0_RSaIT1_E, @function
_ZSt27__uninitialized_default_n_aIPimiET_S1_T0_RSaIT1_E:
.LFB3955:
	.file 9 "/usr/include/c++/11/bits/stl_uninitialized.h"
	.loc 9 702 5
	.cfi_startproc
	endbr64	
	pushq	%rbp	#
	.cfi_def_cfa_offset 16
	.cfi_offset 6, -16
	movq	%rsp, %rbp	#,
	.cfi_def_cfa_register 6
	subq	$32, %rsp	#,
	movq	%rdi, -8(%rbp)	# __first, __first
	movq	%rsi, -16(%rbp)	# __n, __n
	movq	%rdx, -24(%rbp)	# D.86295, D.86295
# /usr/include/c++/11/bits/stl_uninitialized.h:704:     { return std::__uninitialized_default_n(__first, __n); }
	.loc 9 704 44
	movq	-16(%rbp), %rdx	# __n, tmp84
	movq	-8(%rbp), %rax	# __first, tmp85
	movq	%rdx, %rsi	# tmp84,
	movq	%rax, %rdi	# tmp85,
	call	_ZSt25__uninitialized_default_nIPimET_S1_T0_	#
# /usr/include/c++/11/bits/stl_uninitialized.h:704:     { return std::__uninitialized_default_n(__first, __n); }
	.loc 9 704 60
	leave	
	.cfi_def_cfa 7, 8
	ret	
	.cfi_endproc
.LFE3955:
	.size	_ZSt27__uninitialized_default_n_aIPimiET_S1_T0_RSaIT1_E, .-_ZSt27__uninitialized_default_n_aIPimiET_S1_T0_RSaIT1_E
	.section	.text._ZSt8_DestroyIPiEvT_S1_,"axG",@progbits,_ZSt8_DestroyIPiEvT_S1_,comdat
	.weak	_ZSt8_DestroyIPiEvT_S1_
	.type	_ZSt8_DestroyIPiEvT_S1_, @function
_ZSt8_DestroyIPiEvT_S1_:
.LFB3956:
	.file 10 "/usr/include/c++/11/bits/stl_construct.h"
	.loc 10 182 5
	.cfi_startproc
	endbr64	
	pushq	%rbp	#
	.cfi_def_cfa_offset 16
	.cfi_offset 6, -16
	movq	%rsp, %rbp	#,
	.cfi_def_cfa_register 6
	subq	$16, %rsp	#,
	movq	%rdi, -8(%rbp)	# __first, __first
	movq	%rsi, -16(%rbp)	# __last, __last
# /usr/include/c++/11/bits/stl_construct.h:196: 	__destroy(__first, __last);
	.loc 10 196 11
	movq	-16(%rbp), %rdx	# __last, tmp82
	movq	-8(%rbp), %rax	# __first, tmp83
	movq	%rdx, %rsi	# tmp82,
	movq	%rax, %rdi	# tmp83,
	call	_ZNSt12_Destroy_auxILb1EE9__destroyIPiEEvT_S3_	#
# /usr/include/c++/11/bits/stl_construct.h:197:     }
	.loc 10 197 5
	nop	
	leave	
	.cfi_def_cfa 7, 8
	ret	
	.cfi_endproc
.LFE3956:
	.size	_ZSt8_DestroyIPiEvT_S1_, .-_ZSt8_DestroyIPiEvT_S1_
	.section	.text._ZSt24__uninitialized_fill_n_aIPimiiET_S1_T0_RKT1_RSaIT2_E,"axG",@progbits,_ZSt24__uninitialized_fill_n_aIPimiiET_S1_T0_RKT1_RSaIT2_E,comdat
	.weak	_ZSt24__uninitialized_fill_n_aIPimiiET_S1_T0_RKT1_RSaIT2_E
	.type	_ZSt24__uninitialized_fill_n_aIPimiiET_S1_T0_RKT1_RSaIT2_E, @function
_ZSt24__uninitialized_fill_n_aIPimiiET_S1_T0_RKT1_RSaIT2_E:
.LFB3958:
	.loc 9 408 5
	.cfi_startproc
	endbr64	
	pushq	%rbp	#
	.cfi_def_cfa_offset 16
	.cfi_offset 6, -16
	movq	%rsp, %rbp	#,
	.cfi_def_cfa_register 6
	subq	$32, %rsp	#,
	movq	%rdi, -8(%rbp)	# __first, __first
	movq	%rsi, -16(%rbp)	# __n, __n
	movq	%rdx, -24(%rbp)	# __x, __x
	movq	%rcx, -32(%rbp)	# D.86513, D.86513
# /usr/include/c++/11/bits/stl_uninitialized.h:410:     { return std::uninitialized_fill_n(__first, __n, __x); }
	.loc 9 410 39
	movq	-24(%rbp), %rdx	# __x, tmp84
	movq	-16(%rbp), %rcx	# __n, tmp85
	movq	-8(%rbp), %rax	# __first, tmp86
	movq	%rcx, %rsi	# tmp85,
	movq	%rax, %rdi	# tmp86,
	call	_ZSt20uninitialized_fill_nIPimiET_S1_T0_RKT1_	#
# /usr/include/c++/11/bits/stl_uninitialized.h:410:     { return std::uninitialized_fill_n(__first, __n, __x); }
	.loc 9 410 60
	leave	
	.cfi_def_cfa 7, 8
	ret	
	.cfi_endproc
.LFE3958:
	.size	_ZSt24__uninitialized_fill_n_aIPimiiET_S1_T0_RKT1_RSaIT2_E, .-_ZSt24__uninitialized_fill_n_aIPimiiET_S1_T0_RKT1_RSaIT2_E
	.section	.text._ZNSt16allocator_traitsISaIiEE8max_sizeERKS0_,"axG",@progbits,_ZNSt16allocator_traitsISaIiEE8max_sizeERKS0_,comdat
	.weak	_ZNSt16allocator_traitsISaIiEE8max_sizeERKS0_
	.type	_ZNSt16allocator_traitsISaIiEE8max_sizeERKS0_, @function
_ZNSt16allocator_traitsISaIiEE8max_sizeERKS0_:
.LFB4005:
	.loc 8 547 7
	.cfi_startproc
	endbr64	
	pushq	%rbp	#
	.cfi_def_cfa_offset 16
	.cfi_offset 6, -16
	movq	%rsp, %rbp	#,
	.cfi_def_cfa_register 6
	subq	$16, %rsp	#,
	movq	%rdi, -8(%rbp)	# __a, __a
# /usr/include/c++/11/bits/alloc_traits.h:550: 	return __a.max_size();
	.loc 8 550 21
	movq	-8(%rbp), %rax	# __a, tmp84
	movq	%rax, %rdi	# tmp84,
	call	_ZNK9__gnu_cxx13new_allocatorIiE8max_sizeEv	#
# /usr/include/c++/11/bits/alloc_traits.h:554:       }
	.loc 8 554 7
	leave	
	.cfi_def_cfa 7, 8
	ret	
	.cfi_endproc
.LFE4005:
	.size	_ZNSt16allocator_traitsISaIiEE8max_sizeERKS0_, .-_ZNSt16allocator_traitsISaIiEE8max_sizeERKS0_
	.section	.text._ZN9__gnu_cxx13new_allocatorIiEC2ERKS1_,"axG",@progbits,_ZN9__gnu_cxx13new_allocatorIiEC5ERKS1_,comdat
	.align 2
	.weak	_ZN9__gnu_cxx13new_allocatorIiEC2ERKS1_
	.type	_ZN9__gnu_cxx13new_allocatorIiEC2ERKS1_, @function
_ZN9__gnu_cxx13new_allocatorIiEC2ERKS1_:
.LFB4007:
	.loc 7 82 7
	.cfi_startproc
	endbr64	
	pushq	%rbp	#
	.cfi_def_cfa_offset 16
	.cfi_offset 6, -16
	movq	%rsp, %rbp	#,
	.cfi_def_cfa_register 6
	movq	%rdi, -8(%rbp)	# this, this
	movq	%rsi, -16(%rbp)	# D.80897, D.80897
# /usr/include/c++/11/ext/new_allocator.h:82:       new_allocator(const new_allocator&) _GLIBCXX_USE_NOEXCEPT { }
	.loc 7 82 67
	nop	
	popq	%rbp	#
	.cfi_def_cfa 7, 8
	ret	
	.cfi_endproc
.LFE4007:
	.size	_ZN9__gnu_cxx13new_allocatorIiEC2ERKS1_, .-_ZN9__gnu_cxx13new_allocatorIiEC2ERKS1_
	.weak	_ZN9__gnu_cxx13new_allocatorIiEC1ERKS1_
	.set	_ZN9__gnu_cxx13new_allocatorIiEC1ERKS1_,_ZN9__gnu_cxx13new_allocatorIiEC2ERKS1_
	.section	.text._ZNSt12_Vector_baseIiSaIiEE17_Vector_impl_dataC2Ev,"axG",@progbits,_ZNSt12_Vector_baseIiSaIiEE17_Vector_impl_dataC5Ev,comdat
	.align 2
	.weak	_ZNSt12_Vector_baseIiSaIiEE17_Vector_impl_dataC2Ev
	.type	_ZNSt12_Vector_baseIiSaIiEE17_Vector_impl_dataC2Ev, @function
_ZNSt12_Vector_baseIiSaIiEE17_Vector_impl_dataC2Ev:
.LFB4010:
	.loc 6 97 2
	.cfi_startproc
	endbr64	
	pushq	%rbp	#
	.cfi_def_cfa_offset 16
	.cfi_offset 6, -16
	movq	%rsp, %rbp	#,
	.cfi_def_cfa_register 6
	movq	%rdi, -8(%rbp)	# this, this
.LBB18:
# /usr/include/c++/11/bits/stl_vector.h:98: 	: _M_start(), _M_finish(), _M_end_of_storage()
	.loc 6 98 4
	movq	-8(%rbp), %rax	# this, tmp82
	movq	$0, (%rax)	#, this_2(D)->_M_start
# /usr/include/c++/11/bits/stl_vector.h:98: 	: _M_start(), _M_finish(), _M_end_of_storage()
	.loc 6 98 16
	movq	-8(%rbp), %rax	# this, tmp83
	movq	$0, 8(%rax)	#, this_2(D)->_M_finish
# /usr/include/c++/11/bits/stl_vector.h:98: 	: _M_start(), _M_finish(), _M_end_of_storage()
	.loc 6 98 29
	movq	-8(%rbp), %rax	# this, tmp84
	movq	$0, 16(%rax)	#, this_2(D)->_M_end_of_storage
.LBE18:
# /usr/include/c++/11/bits/stl_vector.h:99: 	{ }
	.loc 6 99 4
	nop	
	popq	%rbp	#
	.cfi_def_cfa 7, 8
	ret	
	.cfi_endproc
.LFE4010:
	.size	_ZNSt12_Vector_baseIiSaIiEE17_Vector_impl_dataC2Ev, .-_ZNSt12_Vector_baseIiSaIiEE17_Vector_impl_dataC2Ev
	.weak	_ZNSt12_Vector_baseIiSaIiEE17_Vector_impl_dataC1Ev
	.set	_ZNSt12_Vector_baseIiSaIiEE17_Vector_impl_dataC1Ev,_ZNSt12_Vector_baseIiSaIiEE17_Vector_impl_dataC2Ev
	.section	.text._ZNSt12_Vector_baseIiSaIiEE11_M_allocateEm,"axG",@progbits,_ZNSt12_Vector_baseIiSaIiEE11_M_allocateEm,comdat
	.align 2
	.weak	_ZNSt12_Vector_baseIiSaIiEE11_M_allocateEm
	.type	_ZNSt12_Vector_baseIiSaIiEE11_M_allocateEm, @function
_ZNSt12_Vector_baseIiSaIiEE11_M_allocateEm:
.LFB4012:
	.loc 6 343 7
	.cfi_startproc
	endbr64	
	pushq	%rbp	#
	.cfi_def_cfa_offset 16
	.cfi_offset 6, -16
	movq	%rsp, %rbp	#,
	.cfi_def_cfa_register 6
	subq	$16, %rsp	#,
	movq	%rdi, -8(%rbp)	# this, this
	movq	%rsi, -16(%rbp)	# __n, __n
# /usr/include/c++/11/bits/stl_vector.h:346: 	return __n != 0 ? _Tr::allocate(_M_impl, __n) : pointer();
	.loc 6 346 18
	cmpq	$0, -16(%rbp)	#, __n
	je	.L111	#,
# /usr/include/c++/11/bits/stl_vector.h:346: 	return __n != 0 ? _Tr::allocate(_M_impl, __n) : pointer();
	.loc 6 346 34 discriminator 1
	movq	-8(%rbp), %rax	# this, _1
# /usr/include/c++/11/bits/stl_vector.h:346: 	return __n != 0 ? _Tr::allocate(_M_impl, __n) : pointer();
	.loc 6 346 33 discriminator 1
	movq	-16(%rbp), %rdx	# __n, tmp85
	movq	%rdx, %rsi	# tmp85,
	movq	%rax, %rdi	# _1,
	call	_ZNSt16allocator_traitsISaIiEE8allocateERS0_m	#
# /usr/include/c++/11/bits/stl_vector.h:346: 	return __n != 0 ? _Tr::allocate(_M_impl, __n) : pointer();
	.loc 6 346 58 discriminator 1
	jmp	.L113	#
.L111:
# /usr/include/c++/11/bits/stl_vector.h:346: 	return __n != 0 ? _Tr::allocate(_M_impl, __n) : pointer();
	.loc 6 346 18 discriminator 2
	movl	$0, %eax	#, _9
.L113:
# /usr/include/c++/11/bits/stl_vector.h:347:       }
	.loc 6 347 7 discriminator 5
	leave	
	.cfi_def_cfa 7, 8
	ret	
	.cfi_endproc
.LFE4012:
	.size	_ZNSt12_Vector_baseIiSaIiEE11_M_allocateEm, .-_ZNSt12_Vector_baseIiSaIiEE11_M_allocateEm
	.section	.text._ZNSt16allocator_traitsISaIiEE10deallocateERS0_Pim,"axG",@progbits,_ZNSt16allocator_traitsISaIiEE10deallocateERS0_Pim,comdat
	.weak	_ZNSt16allocator_traitsISaIiEE10deallocateERS0_Pim
	.type	_ZNSt16allocator_traitsISaIiEE10deallocateERS0_Pim, @function
_ZNSt16allocator_traitsISaIiEE10deallocateERS0_Pim:
.LFB4013:
	.loc 8 495 7
	.cfi_startproc
	endbr64	
	pushq	%rbp	#
	.cfi_def_cfa_offset 16
	.cfi_offset 6, -16
	movq	%rsp, %rbp	#,
	.cfi_def_cfa_register 6
	subq	$32, %rsp	#,
	movq	%rdi, -8(%rbp)	# __a, __a
	movq	%rsi, -16(%rbp)	# __p, __p
	movq	%rdx, -24(%rbp)	# __n, __n
# /usr/include/c++/11/bits/alloc_traits.h:496:       { __a.deallocate(__p, __n); }
	.loc 8 496 23
	movq	-24(%rbp), %rdx	# __n, tmp82
	movq	-16(%rbp), %rcx	# __p, tmp83
	movq	-8(%rbp), %rax	# __a, tmp84
	movq	%rcx, %rsi	# tmp83,
	movq	%rax, %rdi	# tmp84,
	call	_ZN9__gnu_cxx13new_allocatorIiE10deallocateEPim	#
# /usr/include/c++/11/bits/alloc_traits.h:496:       { __a.deallocate(__p, __n); }
	.loc 8 496 35
	nop	
	leave	
	.cfi_def_cfa 7, 8
	ret	
	.cfi_endproc
.LFE4013:
	.size	_ZNSt16allocator_traitsISaIiEE10deallocateERS0_Pim, .-_ZNSt16allocator_traitsISaIiEE10deallocateERS0_Pim
	.section	.text._ZSt25__uninitialized_default_nIPimET_S1_T0_,"axG",@progbits,_ZSt25__uninitialized_default_nIPimET_S1_T0_,comdat
	.weak	_ZSt25__uninitialized_default_nIPimET_S1_T0_
	.type	_ZSt25__uninitialized_default_nIPimET_S1_T0_, @function
_ZSt25__uninitialized_default_nIPimET_S1_T0_:
.LFB4014:
	.loc 9 630 5
	.cfi_startproc
	endbr64	
	pushq	%rbp	#
	.cfi_def_cfa_offset 16
	.cfi_offset 6, -16
	movq	%rsp, %rbp	#,
	.cfi_def_cfa_register 6
	subq	$32, %rsp	#,
	movq	%rdi, -24(%rbp)	# __first, __first
	movq	%rsi, -32(%rbp)	# __n, __n
# /usr/include/c++/11/bits/stl_uninitialized.h:635:       constexpr bool __can_fill
	.loc 9 635 22
	movb	$1, -1(%rbp)	#, __can_fill
# /usr/include/c++/11/bits/stl_uninitialized.h:640: 	__uninit_default_n(__first, __n);
	.loc 9 640 20
	movq	-32(%rbp), %rdx	# __n, tmp84
	movq	-24(%rbp), %rax	# __first, tmp85
	movq	%rdx, %rsi	# tmp84,
	movq	%rax, %rdi	# tmp85,
	call	_ZNSt27__uninitialized_default_n_1ILb1EE18__uninit_default_nIPimEET_S3_T0_	#
# /usr/include/c++/11/bits/stl_uninitialized.h:641:     }
	.loc 9 641 5
	leave	
	.cfi_def_cfa 7, 8
	ret	
	.cfi_endproc
.LFE4014:
	.size	_ZSt25__uninitialized_default_nIPimET_S1_T0_, .-_ZSt25__uninitialized_default_nIPimET_S1_T0_
	.section	.text._ZNSt12_Destroy_auxILb1EE9__destroyIPiEEvT_S3_,"axG",@progbits,_ZNSt12_Destroy_auxILb1EE9__destroyIPiEEvT_S3_,comdat
	.weak	_ZNSt12_Destroy_auxILb1EE9__destroyIPiEEvT_S3_
	.type	_ZNSt12_Destroy_auxILb1EE9__destroyIPiEEvT_S3_, @function
_ZNSt12_Destroy_auxILb1EE9__destroyIPiEEvT_S3_:
.LFB4015:
	.loc 10 172 9
	.cfi_startproc
	endbr64	
	pushq	%rbp	#
	.cfi_def_cfa_offset 16
	.cfi_offset 6, -16
	movq	%rsp, %rbp	#,
	.cfi_def_cfa_register 6
	movq	%rdi, -8(%rbp)	# D.87576, D.87576
	movq	%rsi, -16(%rbp)	# D.87577, D.87577
# /usr/include/c++/11/bits/stl_construct.h:172:         __destroy(_ForwardIterator, _ForwardIterator) { }
	.loc 10 172 57
	nop	
	popq	%rbp	#
	.cfi_def_cfa 7, 8
	ret	
	.cfi_endproc
.LFE4015:
	.size	_ZNSt12_Destroy_auxILb1EE9__destroyIPiEEvT_S3_, .-_ZNSt12_Destroy_auxILb1EE9__destroyIPiEEvT_S3_
	.section	.text._ZSt20uninitialized_fill_nIPimiET_S1_T0_RKT1_,"axG",@progbits,_ZSt20uninitialized_fill_nIPimiET_S1_T0_RKT1_,comdat
	.weak	_ZSt20uninitialized_fill_nIPimiET_S1_T0_RKT1_
	.type	_ZSt20uninitialized_fill_nIPimiET_S1_T0_RKT1_, @function
_ZSt20uninitialized_fill_nIPimiET_S1_T0_RKT1_:
.LFB4016:
	.loc 9 273 5
	.cfi_startproc
	endbr64	
	pushq	%rbp	#
	.cfi_def_cfa_offset 16
	.cfi_offset 6, -16
	movq	%rsp, %rbp	#,
	.cfi_def_cfa_register 6
	subq	$48, %rsp	#,
	movq	%rdi, -24(%rbp)	# __first, __first
	movq	%rsi, -32(%rbp)	# __n, __n
	movq	%rdx, -40(%rbp)	# __x, __x
# /usr/include/c++/11/bits/stl_uninitialized.h:293:       constexpr bool __can_fill
	.loc 9 293 22
	movb	$1, -1(%rbp)	#, __can_fill
# /usr/include/c++/11/bits/stl_uninitialized.h:297: 	__uninit_fill_n(__first, __n, __x);
	.loc 9 297 17
	movq	-40(%rbp), %rdx	# __x, tmp84
	movq	-32(%rbp), %rcx	# __n, tmp85
	movq	-24(%rbp), %rax	# __first, tmp86
	movq	%rcx, %rsi	# tmp85,
	movq	%rax, %rdi	# tmp86,
	call	_ZNSt22__uninitialized_fill_nILb1EE15__uninit_fill_nIPimiEET_S3_T0_RKT1_	#
# /usr/include/c++/11/bits/stl_uninitialized.h:298:     }
	.loc 9 298 5
	leave	
	.cfi_def_cfa 7, 8
	ret	
	.cfi_endproc
.LFE4016:
	.size	_ZSt20uninitialized_fill_nIPimiET_S1_T0_RKT1_, .-_ZSt20uninitialized_fill_nIPimiET_S1_T0_RKT1_
	.section	.text._ZNK9__gnu_cxx13new_allocatorIiE8max_sizeEv,"axG",@progbits,_ZNK9__gnu_cxx13new_allocatorIiE8max_sizeEv,comdat
	.align 2
	.weak	_ZNK9__gnu_cxx13new_allocatorIiE8max_sizeEv
	.type	_ZNK9__gnu_cxx13new_allocatorIiE8max_sizeEv, @function
_ZNK9__gnu_cxx13new_allocatorIiE8max_sizeEv:
.LFB4061:
	.loc 7 154 7
	.cfi_startproc
	endbr64	
	pushq	%rbp	#
	.cfi_def_cfa_offset 16
	.cfi_offset 6, -16
	movq	%rsp, %rbp	#,
	.cfi_def_cfa_register 6
	subq	$16, %rsp	#,
	movq	%rdi, -8(%rbp)	# this, this
# /usr/include/c++/11/ext/new_allocator.h:155:       { return _M_max_size(); }
	.loc 7 155 27
	movq	-8(%rbp), %rax	# this, tmp84
	movq	%rax, %rdi	# tmp84,
	call	_ZNK9__gnu_cxx13new_allocatorIiE11_M_max_sizeEv	#
# /usr/include/c++/11/ext/new_allocator.h:155:       { return _M_max_size(); }
	.loc 7 155 31
	leave	
	.cfi_def_cfa 7, 8
	ret	
	.cfi_endproc
.LFE4061:
	.size	_ZNK9__gnu_cxx13new_allocatorIiE8max_sizeEv, .-_ZNK9__gnu_cxx13new_allocatorIiE8max_sizeEv
	.section	.text._ZNSt16allocator_traitsISaIiEE8allocateERS0_m,"axG",@progbits,_ZNSt16allocator_traitsISaIiEE8allocateERS0_m,comdat
	.weak	_ZNSt16allocator_traitsISaIiEE8allocateERS0_m
	.type	_ZNSt16allocator_traitsISaIiEE8allocateERS0_m, @function
_ZNSt16allocator_traitsISaIiEE8allocateERS0_m:
.LFB4062:
	.loc 8 463 7
	.cfi_startproc
	endbr64	
	pushq	%rbp	#
	.cfi_def_cfa_offset 16
	.cfi_offset 6, -16
	movq	%rsp, %rbp	#,
	.cfi_def_cfa_register 6
	subq	$16, %rsp	#,
	movq	%rdi, -8(%rbp)	# __a, __a
	movq	%rsi, -16(%rbp)	# __n, __n
# /usr/include/c++/11/bits/alloc_traits.h:464:       { return __a.allocate(__n); }
	.loc 8 464 28
	movq	-16(%rbp), %rcx	# __n, tmp84
	movq	-8(%rbp), %rax	# __a, tmp85
	movl	$0, %edx	#,
	movq	%rcx, %rsi	# tmp84,
	movq	%rax, %rdi	# tmp85,
	call	_ZN9__gnu_cxx13new_allocatorIiE8allocateEmPKv	#
# /usr/include/c++/11/bits/alloc_traits.h:464:       { return __a.allocate(__n); }
	.loc 8 464 35
	leave	
	.cfi_def_cfa 7, 8
	ret	
	.cfi_endproc
.LFE4062:
	.size	_ZNSt16allocator_traitsISaIiEE8allocateERS0_m, .-_ZNSt16allocator_traitsISaIiEE8allocateERS0_m
	.section	.text._ZN9__gnu_cxx13new_allocatorIiE10deallocateEPim,"axG",@progbits,_ZN9__gnu_cxx13new_allocatorIiE10deallocateEPim,comdat
	.align 2
	.weak	_ZN9__gnu_cxx13new_allocatorIiE10deallocateEPim
	.type	_ZN9__gnu_cxx13new_allocatorIiE10deallocateEPim, @function
_ZN9__gnu_cxx13new_allocatorIiE10deallocateEPim:
.LFB4063:
	.loc 7 132 7
	.cfi_startproc
	endbr64	
	pushq	%rbp	#
	.cfi_def_cfa_offset 16
	.cfi_offset 6, -16
	movq	%rsp, %rbp	#,
	.cfi_def_cfa_register 6
	subq	$32, %rsp	#,
	movq	%rdi, -8(%rbp)	# this, this
	movq	%rsi, -16(%rbp)	# __p, __p
	movq	%rdx, -24(%rbp)	# __t, __t
# /usr/include/c++/11/ext/new_allocator.h:145: 	::operator delete(__p
	.loc 7 145 19
	movq	-24(%rbp), %rax	# __t, tmp83
	leaq	0(,%rax,4), %rdx	#, _2
	movq	-16(%rbp), %rax	# __p, tmp84
	movq	%rdx, %rsi	# _2,
	movq	%rax, %rdi	# tmp84,
	call	_ZdlPvm@PLT	#
# /usr/include/c++/11/ext/new_allocator.h:150:       }
	.loc 7 150 7
	leave	
	.cfi_def_cfa 7, 8
	ret	
	.cfi_endproc
.LFE4063:
	.size	_ZN9__gnu_cxx13new_allocatorIiE10deallocateEPim, .-_ZN9__gnu_cxx13new_allocatorIiE10deallocateEPim
	.section	.text._ZSt11__addressofIiEPT_RS0_,"axG",@progbits,_ZSt11__addressofIiEPT_RS0_,comdat
	.weak	_ZSt11__addressofIiEPT_RS0_
	.type	_ZSt11__addressofIiEPT_RS0_, @function
_ZSt11__addressofIiEPT_RS0_:
.LFB4065:
	.file 11 "/usr/include/c++/11/bits/move.h"
	.loc 11 49 5
	.cfi_startproc
	endbr64	
	pushq	%rbp	#
	.cfi_def_cfa_offset 16
	.cfi_offset 6, -16
	movq	%rsp, %rbp	#,
	.cfi_def_cfa_register 6
	movq	%rdi, -8(%rbp)	# __r, __r
# /usr/include/c++/11/bits/move.h:50:     { return __builtin_addressof(__r); }
	.loc 11 50 37
	movq	-8(%rbp), %rax	# __r, _2
# /usr/include/c++/11/bits/move.h:50:     { return __builtin_addressof(__r); }
	.loc 11 50 40
	popq	%rbp	#
	.cfi_def_cfa 7, 8
	ret	
	.cfi_endproc
.LFE4065:
	.size	_ZSt11__addressofIiEPT_RS0_, .-_ZSt11__addressofIiEPT_RS0_
	.section	.text._ZNSt27__uninitialized_default_n_1ILb1EE18__uninit_default_nIPimEET_S3_T0_,"axG",@progbits,_ZNSt27__uninitialized_default_n_1ILb1EE18__uninit_default_nIPimEET_S3_T0_,comdat
	.weak	_ZNSt27__uninitialized_default_n_1ILb1EE18__uninit_default_nIPimEET_S3_T0_
	.type	_ZNSt27__uninitialized_default_n_1ILb1EE18__uninit_default_nIPimEET_S3_T0_, @function
_ZNSt27__uninitialized_default_n_1ILb1EE18__uninit_default_nIPimEET_S3_T0_:
.LFB4064:
	.loc 9 595 9
	.cfi_startproc
	endbr64	
	pushq	%rbp	#
	.cfi_def_cfa_offset 16
	.cfi_offset 6, -16
	movq	%rsp, %rbp	#,
	.cfi_def_cfa_register 6
	subq	$32, %rsp	#,
	movq	%rdi, -24(%rbp)	# __first, __first
	movq	%rsi, -32(%rbp)	# __n, __n
.LBB19:
# /usr/include/c++/11/bits/stl_uninitialized.h:597: 	  if (__n > 0)
	.loc 9 597 4
	cmpq	$0, -32(%rbp)	#, __n
	je	.L129	#,
.LBB20:
# /usr/include/c++/11/bits/stl_uninitialized.h:600: 		= std::__addressof(*__first);
	.loc 9 600 21
	movq	-24(%rbp), %rax	# __first, tmp86
	movq	%rax, %rdi	# tmp86,
	call	_ZSt11__addressofIiEPT_RS0_	#
	movq	%rax, -8(%rbp)	# tmp87, __val
# /usr/include/c++/11/bits/stl_uninitialized.h:601: 	      std::_Construct(__val);
	.loc 9 601 23
	movq	-8(%rbp), %rax	# __val, tmp88
	movq	%rax, %rdi	# tmp88,
	call	_ZSt10_ConstructIiJEEvPT_DpOT0_	#
# /usr/include/c++/11/bits/stl_uninitialized.h:602: 	      ++__first;
	.loc 9 602 8
	addq	$4, -24(%rbp)	#, __first
# /usr/include/c++/11/bits/stl_uninitialized.h:603: 	      __first = std::fill_n(__first, __n - 1, *__val);
	.loc 9 603 29
	movq	-32(%rbp), %rax	# __n, tmp89
	leaq	-1(%rax), %rcx	#, _1
	movq	-8(%rbp), %rdx	# __val, tmp90
	movq	-24(%rbp), %rax	# __first, tmp91
	movq	%rcx, %rsi	# _1,
	movq	%rax, %rdi	# tmp91,
	call	_ZSt6fill_nIPimiET_S1_T0_RKT1_	#
	movq	%rax, -24(%rbp)	# _12, __first
.L129:
.LBE20:
.LBE19:
# /usr/include/c++/11/bits/stl_uninitialized.h:605: 	  return __first;
	.loc 9 605 11
	movq	-24(%rbp), %rax	# __first, _14
# /usr/include/c++/11/bits/stl_uninitialized.h:606: 	}
	.loc 9 606 2
	leave	
	.cfi_def_cfa 7, 8
	ret	
	.cfi_endproc
.LFE4064:
	.size	_ZNSt27__uninitialized_default_n_1ILb1EE18__uninit_default_nIPimEET_S3_T0_, .-_ZNSt27__uninitialized_default_n_1ILb1EE18__uninit_default_nIPimEET_S3_T0_
	.section	.text._ZNSt22__uninitialized_fill_nILb1EE15__uninit_fill_nIPimiEET_S3_T0_RKT1_,"axG",@progbits,_ZNSt22__uninitialized_fill_nILb1EE15__uninit_fill_nIPimiEET_S3_T0_RKT1_,comdat
	.weak	_ZNSt22__uninitialized_fill_nILb1EE15__uninit_fill_nIPimiEET_S3_T0_RKT1_
	.type	_ZNSt22__uninitialized_fill_nILb1EE15__uninit_fill_nIPimiEET_S3_T0_RKT1_, @function
_ZNSt22__uninitialized_fill_nILb1EE15__uninit_fill_nIPimiEET_S3_T0_RKT1_:
.LFB4066:
	.loc 9 253 9
	.cfi_startproc
	endbr64	
	pushq	%rbp	#
	.cfi_def_cfa_offset 16
	.cfi_offset 6, -16
	movq	%rsp, %rbp	#,
	.cfi_def_cfa_register 6
	subq	$32, %rsp	#,
	movq	%rdi, -8(%rbp)	# __first, __first
	movq	%rsi, -16(%rbp)	# __n, __n
	movq	%rdx, -24(%rbp)	# __x, __x
# /usr/include/c++/11/bits/stl_uninitialized.h:255:         { return std::fill_n(__first, __n, __x); }
	.loc 9 255 29
	movq	-24(%rbp), %rdx	# __x, tmp84
	movq	-16(%rbp), %rcx	# __n, tmp85
	movq	-8(%rbp), %rax	# __first, tmp86
	movq	%rcx, %rsi	# tmp85,
	movq	%rax, %rdi	# tmp86,
	call	_ZSt6fill_nIPimiET_S1_T0_RKT1_	#
# /usr/include/c++/11/bits/stl_uninitialized.h:255:         { return std::fill_n(__first, __n, __x); }
	.loc 9 255 50
	leave	
	.cfi_def_cfa 7, 8
	ret	
	.cfi_endproc
.LFE4066:
	.size	_ZNSt22__uninitialized_fill_nILb1EE15__uninit_fill_nIPimiEET_S3_T0_RKT1_, .-_ZNSt22__uninitialized_fill_nILb1EE15__uninit_fill_nIPimiEET_S3_T0_RKT1_
	.section	.text._ZNK9__gnu_cxx13new_allocatorIiE11_M_max_sizeEv,"axG",@progbits,_ZNK9__gnu_cxx13new_allocatorIiE11_M_max_sizeEv,comdat
	.align 2
	.weak	_ZNK9__gnu_cxx13new_allocatorIiE11_M_max_sizeEv
	.type	_ZNK9__gnu_cxx13new_allocatorIiE11_M_max_sizeEv, @function
_ZNK9__gnu_cxx13new_allocatorIiE11_M_max_sizeEv:
.LFB4091:
	.loc 7 197 7
	.cfi_startproc
	endbr64	
	pushq	%rbp	#
	.cfi_def_cfa_offset 16
	.cfi_offset 6, -16
	movq	%rsp, %rbp	#,
	.cfi_def_cfa_register 6
	movq	%rdi, -8(%rbp)	# this, this
# /usr/include/c++/11/ext/new_allocator.h:200: 	return std::size_t(__PTRDIFF_MAX__) / sizeof(_Tp);
	.loc 7 200 50
	movabsq	$2305843009213693951, %rax	#, _1
# /usr/include/c++/11/ext/new_allocator.h:204:       }
	.loc 7 204 7
	popq	%rbp	#
	.cfi_def_cfa 7, 8
	ret	
	.cfi_endproc
.LFE4091:
	.size	_ZNK9__gnu_cxx13new_allocatorIiE11_M_max_sizeEv, .-_ZNK9__gnu_cxx13new_allocatorIiE11_M_max_sizeEv
	.section	.text._ZN9__gnu_cxx13new_allocatorIiE8allocateEmPKv,"axG",@progbits,_ZN9__gnu_cxx13new_allocatorIiE8allocateEmPKv,comdat
	.align 2
	.weak	_ZN9__gnu_cxx13new_allocatorIiE8allocateEmPKv
	.type	_ZN9__gnu_cxx13new_allocatorIiE8allocateEmPKv, @function
_ZN9__gnu_cxx13new_allocatorIiE8allocateEmPKv:
.LFB4092:
	.loc 7 103 7
	.cfi_startproc
	endbr64	
	pushq	%rbp	#
	.cfi_def_cfa_offset 16
	.cfi_offset 6, -16
	movq	%rsp, %rbp	#,
	.cfi_def_cfa_register 6
	subq	$32, %rsp	#,
	movq	%rdi, -8(%rbp)	# this, this
	movq	%rsi, -16(%rbp)	# __n, __n
	movq	%rdx, -24(%rbp)	# D.87938, D.87938
# /usr/include/c++/11/ext/new_allocator.h:111: 	if (__builtin_expect(__n > this->_M_max_size(), false))
	.loc 7 111 46
	movq	-8(%rbp), %rax	# this, tmp90
	movq	%rax, %rdi	# tmp90,
	call	_ZNK9__gnu_cxx13new_allocatorIiE11_M_max_sizeEv	#
# /usr/include/c++/11/ext/new_allocator.h:111: 	if (__builtin_expect(__n > this->_M_max_size(), false))
	.loc 7 111 27
	cmpq	%rax, -16(%rbp)	# _1, __n
	seta	%al	#, _2
# /usr/include/c++/11/ext/new_allocator.h:111: 	if (__builtin_expect(__n > this->_M_max_size(), false))
	.loc 7 111 22
	movzbl	%al, %eax	# _2, _3
	testq	%rax, %rax	# _4
	setne	%al	#, retval.2_10
# /usr/include/c++/11/ext/new_allocator.h:111: 	if (__builtin_expect(__n > this->_M_max_size(), false))
	.loc 7 111 2
	testb	%al, %al	# retval.2_10
	je	.L136	#,
# /usr/include/c++/11/ext/new_allocator.h:115: 	    if (__n > (std::size_t(-1) / sizeof(_Tp)))
	.loc 7 115 6
	movabsq	$4611686018427387903, %rax	#, tmp91
	cmpq	%rax, -16(%rbp)	# tmp91, __n
	jbe	.L137	#,
# /usr/include/c++/11/ext/new_allocator.h:116: 	      std::__throw_bad_array_new_length();
	.loc 7 116 41
	call	_ZSt28__throw_bad_array_new_lengthv@PLT	#
.L137:
# /usr/include/c++/11/ext/new_allocator.h:117: 	    std::__throw_bad_alloc();
	.loc 7 117 28
	call	_ZSt17__throw_bad_allocv@PLT	#
.L136:
# /usr/include/c++/11/ext/new_allocator.h:127: 	return static_cast<_Tp*>(::operator new(__n * sizeof(_Tp)));
	.loc 7 127 41
	movq	-16(%rbp), %rax	# __n, tmp92
	salq	$2, %rax	#, _6
	movq	%rax, %rdi	# _6,
	call	_Znwm@PLT	#
# /usr/include/c++/11/ext/new_allocator.h:127: 	return static_cast<_Tp*>(::operator new(__n * sizeof(_Tp)));
	.loc 7 127 60
	nop	
# /usr/include/c++/11/ext/new_allocator.h:128:       }
	.loc 7 128 7
	leave	
	.cfi_def_cfa 7, 8
	ret	
	.cfi_endproc
.LFE4092:
	.size	_ZN9__gnu_cxx13new_allocatorIiE8allocateEmPKv, .-_ZN9__gnu_cxx13new_allocatorIiE8allocateEmPKv
	.section	.text._ZSt10_ConstructIiJEEvPT_DpOT0_,"axG",@progbits,_ZSt10_ConstructIiJEEvPT_DpOT0_,comdat
	.weak	_ZSt10_ConstructIiJEEvPT_DpOT0_
	.type	_ZSt10_ConstructIiJEEvPT_DpOT0_, @function
_ZSt10_ConstructIiJEEvPT_DpOT0_:
.LFB4093:
	.loc 10 109 5
	.cfi_startproc
	endbr64	
	pushq	%rbp	#
	.cfi_def_cfa_offset 16
	.cfi_offset 6, -16
	movq	%rsp, %rbp	#,
	.cfi_def_cfa_register 6
	subq	$16, %rsp	#,
	movq	%rdi, -8(%rbp)	# __p, __p
# /usr/include/c++/11/bits/stl_construct.h:119:       ::new((void*)__p) _Tp(std::forward<_Args>(__args)...);
	.loc 10 119 13
	movq	-8(%rbp), %rax	# __p, _2
# /usr/include/c++/11/bits/stl_construct.h:119:       ::new((void*)__p) _Tp(std::forward<_Args>(__args)...);
	.loc 10 119 7
	movq	%rax, %rsi	# _2,
	movl	$4, %edi	#,
	call	_ZnwmPv	#
	movl	$0, (%rax)	#, MEM[(int *)_5]
# /usr/include/c++/11/bits/stl_construct.h:120:     }
	.loc 10 120 5
	nop	
	leave	
	.cfi_def_cfa 7, 8
	ret	
	.cfi_endproc
.LFE4093:
	.size	_ZSt10_ConstructIiJEEvPT_DpOT0_, .-_ZSt10_ConstructIiJEEvPT_DpOT0_
	.section	.text._ZSt6fill_nIPimiET_S1_T0_RKT1_,"axG",@progbits,_ZSt6fill_nIPimiET_S1_T0_RKT1_,comdat
	.weak	_ZSt6fill_nIPimiET_S1_T0_RKT1_
	.type	_ZSt6fill_nIPimiET_S1_T0_RKT1_, @function
_ZSt6fill_nIPimiET_S1_T0_RKT1_:
.LFB4094:
	.loc 2 1144 5
	.cfi_startproc
	endbr64	
	pushq	%rbp	#
	.cfi_def_cfa_offset 16
	.cfi_offset 6, -16
	movq	%rsp, %rbp	#,
	.cfi_def_cfa_register 6
	subq	$32, %rsp	#,
	movq	%rdi, -8(%rbp)	# __first, __first
	movq	%rsi, -16(%rbp)	# __n, __n
	movq	%rdx, -24(%rbp)	# __value, __value
# /usr/include/c++/11/bits/stl_algobase.h:1150: 			       std::__iterator_category(__first));
	.loc 2 1150 35
	leaq	-8(%rbp), %rax	#, tmp87
	movq	%rax, %rdi	# tmp87,
	call	_ZSt19__iterator_categoryIPiENSt15iterator_traitsIT_E17iterator_categoryERKS2_	#
# /usr/include/c++/11/bits/stl_algobase.h:1149:       return std::__fill_n_a(__first, std::__size_to_integer(__n), __value,
	.loc 2 1149 29
	movq	-16(%rbp), %rax	# __n, tmp88
	movq	%rax, %rdi	# tmp88,
	call	_ZSt17__size_to_integerm	#
	movq	%rax, %rcx	#, _1
	movq	-8(%rbp), %rax	# __first, __first.3_2
	movq	-24(%rbp), %rdx	# __value, tmp89
	movq	%rcx, %rsi	# _1,
	movq	%rax, %rdi	# __first.3_2,
	call	_ZSt10__fill_n_aIPimiET_S1_T0_RKT1_St26random_access_iterator_tag	#
# /usr/include/c++/11/bits/stl_algobase.h:1151:     }
	.loc 2 1151 5
	leave	
	.cfi_def_cfa 7, 8
	ret	
	.cfi_endproc
.LFE4094:
	.size	_ZSt6fill_nIPimiET_S1_T0_RKT1_, .-_ZSt6fill_nIPimiET_S1_T0_RKT1_
	.section	.text._ZSt19__iterator_categoryIPiENSt15iterator_traitsIT_E17iterator_categoryERKS2_,"axG",@progbits,_ZSt19__iterator_categoryIPiENSt15iterator_traitsIT_E17iterator_categoryERKS2_,comdat
	.weak	_ZSt19__iterator_categoryIPiENSt15iterator_traitsIT_E17iterator_categoryERKS2_
	.type	_ZSt19__iterator_categoryIPiENSt15iterator_traitsIT_E17iterator_categoryERKS2_, @function
_ZSt19__iterator_categoryIPiENSt15iterator_traitsIT_E17iterator_categoryERKS2_:
.LFB4107:
	.file 12 "/usr/include/c++/11/bits/stl_iterator_base_types.h"
	.loc 12 238 5
	.cfi_startproc
	endbr64	
	pushq	%rbp	#
	.cfi_def_cfa_offset 16
	.cfi_offset 6, -16
	movq	%rsp, %rbp	#,
	.cfi_def_cfa_register 6
	movq	%rdi, -8(%rbp)	# D.88021, D.88021
# /usr/include/c++/11/bits/stl_iterator_base_types.h:239:     { return typename iterator_traits<_Iter>::iterator_category(); }
	.loc 12 239 68
	popq	%rbp	#
	.cfi_def_cfa 7, 8
	ret	
	.cfi_endproc
.LFE4107:
	.size	_ZSt19__iterator_categoryIPiENSt15iterator_traitsIT_E17iterator_categoryERKS2_, .-_ZSt19__iterator_categoryIPiENSt15iterator_traitsIT_E17iterator_categoryERKS2_
	.section	.text._ZSt10__fill_n_aIPimiET_S1_T0_RKT1_St26random_access_iterator_tag,"axG",@progbits,_ZSt10__fill_n_aIPimiET_S1_T0_RKT1_St26random_access_iterator_tag,comdat
	.weak	_ZSt10__fill_n_aIPimiET_S1_T0_RKT1_St26random_access_iterator_tag
	.type	_ZSt10__fill_n_aIPimiET_S1_T0_RKT1_St26random_access_iterator_tag, @function
_ZSt10__fill_n_aIPimiET_S1_T0_RKT1_St26random_access_iterator_tag:
.LFB4108:
	.loc 2 1109 5
	.cfi_startproc
	endbr64	
	pushq	%rbp	#
	.cfi_def_cfa_offset 16
	.cfi_offset 6, -16
	movq	%rsp, %rbp	#,
	.cfi_def_cfa_register 6
	subq	$32, %rsp	#,
	movq	%rdi, -8(%rbp)	# __first, __first
	movq	%rsi, -16(%rbp)	# __n, __n
	movq	%rdx, -24(%rbp)	# __value, __value
# /usr/include/c++/11/bits/stl_algobase.h:1115:       if (__n <= 0)
	.loc 2 1115 7
	cmpq	$0, -16(%rbp)	#, __n
	jne	.L145	#,
# /usr/include/c++/11/bits/stl_algobase.h:1116: 	return __first;
	.loc 2 1116 9
	movq	-8(%rbp), %rax	# __first, _4
	jmp	.L146	#
.L145:
# /usr/include/c++/11/bits/stl_algobase.h:1120:       std::__fill_a(__first, __first + __n, __value);
	.loc 2 1120 38
	movq	-16(%rbp), %rax	# __n, tmp87
	leaq	0(,%rax,4), %rdx	#, _1
# /usr/include/c++/11/bits/stl_algobase.h:1120:       std::__fill_a(__first, __first + __n, __value);
	.loc 2 1120 20
	movq	-8(%rbp), %rax	# __first, tmp88
	leaq	(%rdx,%rax), %rcx	#, _2
	movq	-24(%rbp), %rdx	# __value, tmp89
	movq	-8(%rbp), %rax	# __first, tmp90
	movq	%rcx, %rsi	# _2,
	movq	%rax, %rdi	# tmp90,
	call	_ZSt8__fill_aIPiiEvT_S1_RKT0_	#
# /usr/include/c++/11/bits/stl_algobase.h:1121:       return __first + __n;
	.loc 2 1121 22
	movq	-16(%rbp), %rax	# __n, tmp91
	leaq	0(,%rax,4), %rdx	#, _3
# /usr/include/c++/11/bits/stl_algobase.h:1121:       return __first + __n;
	.loc 2 1121 24
	movq	-8(%rbp), %rax	# __first, tmp92
	addq	%rdx, %rax	# _3, _4
.L146:
# /usr/include/c++/11/bits/stl_algobase.h:1122:     }
	.loc 2 1122 5
	leave	
	.cfi_def_cfa 7, 8
	ret	
	.cfi_endproc
.LFE4108:
	.size	_ZSt10__fill_n_aIPimiET_S1_T0_RKT1_St26random_access_iterator_tag, .-_ZSt10__fill_n_aIPimiET_S1_T0_RKT1_St26random_access_iterator_tag
	.section	.text._ZSt8__fill_aIPiiEvT_S1_RKT0_,"axG",@progbits,_ZSt8__fill_aIPiiEvT_S1_RKT0_,comdat
	.weak	_ZSt8__fill_aIPiiEvT_S1_RKT0_
	.type	_ZSt8__fill_aIPiiEvT_S1_RKT0_, @function
_ZSt8__fill_aIPiiEvT_S1_RKT0_:
.LFB4111:
	.loc 2 968 5
	.cfi_startproc
	endbr64	
	pushq	%rbp	#
	.cfi_def_cfa_offset 16
	.cfi_offset 6, -16
	movq	%rsp, %rbp	#,
	.cfi_def_cfa_register 6
	subq	$32, %rsp	#,
	movq	%rdi, -8(%rbp)	# __first, __first
	movq	%rsi, -16(%rbp)	# __last, __last
	movq	%rdx, -24(%rbp)	# __value, __value
# /usr/include/c++/11/bits/stl_algobase.h:969:     { std::__fill_a1(__first, __last, __value); }
	.loc 2 969 21
	movq	-24(%rbp), %rdx	# __value, tmp82
	movq	-16(%rbp), %rcx	# __last, tmp83
	movq	-8(%rbp), %rax	# __first, tmp84
	movq	%rcx, %rsi	# tmp83,
	movq	%rax, %rdi	# tmp84,
	call	_ZSt9__fill_a1IPiiEN9__gnu_cxx11__enable_ifIXsrSt11__is_scalarIT0_E7__valueEvE6__typeET_S8_RKS4_	#
# /usr/include/c++/11/bits/stl_algobase.h:969:     { std::__fill_a1(__first, __last, __value); }
	.loc 2 969 49
	nop	
	leave	
	.cfi_def_cfa 7, 8
	ret	
	.cfi_endproc
.LFE4111:
	.size	_ZSt8__fill_aIPiiEvT_S1_RKT0_, .-_ZSt8__fill_aIPiiEvT_S1_RKT0_
	.section	.text._ZSt9__fill_a1IPiiEN9__gnu_cxx11__enable_ifIXsrSt11__is_scalarIT0_E7__valueEvE6__typeET_S8_RKS4_,"axG",@progbits,_ZSt9__fill_a1IPiiEN9__gnu_cxx11__enable_ifIXsrSt11__is_scalarIT0_E7__valueEvE6__typeET_S8_RKS4_,comdat
	.weak	_ZSt9__fill_a1IPiiEN9__gnu_cxx11__enable_ifIXsrSt11__is_scalarIT0_E7__valueEvE6__typeET_S8_RKS4_
	.type	_ZSt9__fill_a1IPiiEN9__gnu_cxx11__enable_ifIXsrSt11__is_scalarIT0_E7__valueEvE6__typeET_S8_RKS4_, @function
_ZSt9__fill_a1IPiiEN9__gnu_cxx11__enable_ifIXsrSt11__is_scalarIT0_E7__valueEvE6__typeET_S8_RKS4_:
.LFB4112:
	.loc 2 919 5
	.cfi_startproc
	endbr64	
	pushq	%rbp	#
	.cfi_def_cfa_offset 16
	.cfi_offset 6, -16
	movq	%rsp, %rbp	#,
	.cfi_def_cfa_register 6
	movq	%rdi, -24(%rbp)	# __first, __first
	movq	%rsi, -32(%rbp)	# __last, __last
	movq	%rdx, -40(%rbp)	# __value, __value
# /usr/include/c++/11/bits/stl_algobase.h:922:       const _Tp __tmp = __value;
	.loc 2 922 17
	movq	-40(%rbp), %rax	# __value, tmp82
	movl	(%rax), %eax	# *__value_4(D), tmp83
	movl	%eax, -4(%rbp)	# tmp83, __tmp
# /usr/include/c++/11/bits/stl_algobase.h:923:       for (; __first != __last; ++__first)
	.loc 2 923 7
	jmp	.L149	#
.L150:
# /usr/include/c++/11/bits/stl_algobase.h:924: 	*__first = __tmp;
	.loc 2 924 11 discriminator 2
	movq	-24(%rbp), %rax	# __first, tmp84
	movl	-4(%rbp), %edx	# __tmp, tmp85
	movl	%edx, (%rax)	# tmp85, *__first_1
# /usr/include/c++/11/bits/stl_algobase.h:923:       for (; __first != __last; ++__first)
	.loc 2 923 7 discriminator 2
	addq	$4, -24(%rbp)	#, __first
.L149:
# /usr/include/c++/11/bits/stl_algobase.h:923:       for (; __first != __last; ++__first)
	.loc 2 923 22 discriminator 1
	movq	-24(%rbp), %rax	# __first, tmp86
	cmpq	-32(%rbp), %rax	# __last, tmp86
	jne	.L150	#,
# /usr/include/c++/11/bits/stl_algobase.h:925:     }
	.loc 2 925 5
	nop	
	nop	
	popq	%rbp	#
	.cfi_def_cfa 7, 8
	ret	
	.cfi_endproc
.LFE4112:
	.size	_ZSt9__fill_a1IPiiEN9__gnu_cxx11__enable_ifIXsrSt11__is_scalarIT0_E7__valueEvE6__typeET_S8_RKS4_, .-_ZSt9__fill_a1IPiiEN9__gnu_cxx11__enable_ifIXsrSt11__is_scalarIT0_E7__valueEvE6__typeET_S8_RKS4_
	.text
	.type	_Z41__static_initialization_and_destruction_0ii, @function
_Z41__static_initialization_and_destruction_0ii:
.LFB4113:
	.loc 4 81 1
	.cfi_startproc
	endbr64	
	pushq	%rbp	#
	.cfi_def_cfa_offset 16
	.cfi_offset 6, -16
	movq	%rsp, %rbp	#,
	.cfi_def_cfa_register 6
	subq	$16, %rsp	#,
	movl	%edi, -4(%rbp)	# __initialize_p, __initialize_p
	movl	%esi, -8(%rbp)	# __priority, __priority
# /home/zhuo/git/dp_study/src/main.cpp:81: }
	.loc 4 81 1
	cmpl	$1, -4(%rbp)	#, __initialize_p
	jne	.L153	#,
# /home/zhuo/git/dp_study/src/main.cpp:81: }
	.loc 4 81 1 is_stmt 0 discriminator 1
	cmpl	$65535, -8(%rbp)	#, __priority
	jne	.L153	#,
# /usr/include/c++/11/iostream:74:   static ios_base::Init __ioinit;
	.file 13 "/usr/include/c++/11/iostream"
	.loc 13 74 25 is_stmt 1
	leaq	_ZStL8__ioinit(%rip), %rax	#, tmp82
	movq	%rax, %rdi	# tmp82,
	call	_ZNSt8ios_base4InitC1Ev@PLT	#
	leaq	__dso_handle(%rip), %rax	#, tmp83
	movq	%rax, %rdx	# tmp83,
	leaq	_ZStL8__ioinit(%rip), %rax	#, tmp84
	movq	%rax, %rsi	# tmp84,
	movq	_ZNSt8ios_base4InitD1Ev@GOTPCREL(%rip), %rax	#, tmp86
	movq	%rax, %rdi	# tmp85,
	call	__cxa_atexit@PLT	#
.L153:
# /home/zhuo/git/dp_study/src/main.cpp:81: }
	.loc 4 81 1
	nop	
	leave	
	.cfi_def_cfa 7, 8
	ret	
	.cfi_endproc
.LFE4113:
	.size	_Z41__static_initialization_and_destruction_0ii, .-_Z41__static_initialization_and_destruction_0ii
	.type	_GLOBAL__sub_I__Z9fibonaccii, @function
_GLOBAL__sub_I__Z9fibonaccii:
.LFB4114:
	.loc 4 81 1
	.cfi_startproc
	endbr64	
	pushq	%rbp	#
	.cfi_def_cfa_offset 16
	.cfi_offset 6, -16
	movq	%rsp, %rbp	#,
	.cfi_def_cfa_register 6
# /home/zhuo/git/dp_study/src/main.cpp:81: }
	.loc 4 81 1
	movl	$65535, %esi	#,
	movl	$1, %edi	#,
	call	_Z41__static_initialization_and_destruction_0ii	#
	popq	%rbp	#
	.cfi_def_cfa 7, 8
	ret	
	.cfi_endproc
.LFE4114:
	.size	_GLOBAL__sub_I__Z9fibonaccii, .-_GLOBAL__sub_I__Z9fibonaccii
	.section	.init_array,"aw"
	.align 8
	.quad	_GLOBAL__sub_I__Z9fibonaccii
	.text
.Letext0:
	.file 14 "<built-in>"
	.file 15 "/usr/lib/gcc/x86_64-linux-gnu/11/include/stddef.h"
	.file 16 "/usr/include/x86_64-linux-gnu/bits/types/wint_t.h"
	.file 17 "/usr/include/x86_64-linux-gnu/bits/types/__mbstate_t.h"
	.file 18 "/usr/include/x86_64-linux-gnu/bits/types/mbstate_t.h"
	.file 19 "/usr/include/x86_64-linux-gnu/bits/types/__FILE.h"
	.file 20 "/usr/include/x86_64-linux-gnu/bits/types/struct_FILE.h"
	.file 21 "/usr/include/x86_64-linux-gnu/bits/types/FILE.h"
	.file 22 "/usr/include/c++/11/cwchar"
	.file 23 "/usr/include/c++/11/type_traits"
	.file 24 "/usr/include/x86_64-linux-gnu/c++/11/bits/c++config.h"
	.file 25 "/usr/include/c++/11/bits/exception_ptr.h"
	.file 26 "/usr/include/c++/11/debug/debug.h"
	.file 27 "/usr/include/c++/11/bits/char_traits.h"
	.file 28 "/usr/include/c++/11/cstdint"
	.file 29 "/usr/include/c++/11/clocale"
	.file 30 "/usr/include/c++/11/cstdlib"
	.file 31 "/usr/include/c++/11/cstdio"
	.file 32 "/usr/include/c++/11/bits/ios_base.h"
	.file 33 "/usr/include/c++/11/cwctype"
	.file 34 "/usr/include/c++/11/bits/ostream.tcc"
	.file 35 "/usr/include/c++/11/ostream"
	.file 36 "/usr/include/c++/11/istream"
	.file 37 "/usr/include/c++/11/iosfwd"
	.file 38 "/usr/include/c++/11/bits/stl_iterator.h"
	.file 39 "/usr/include/c++/11/functional"
	.file 40 "/usr/include/c++/11/ctime"
	.file 41 "/usr/include/c++/11/ratio"
	.file 42 "/usr/include/c++/11/bits/vector.tcc"
	.file 43 "/usr/include/c++/11/initializer_list"
	.file 44 "/usr/include/c++/11/bits/functexcept.h"
	.file 45 "/usr/include/wchar.h"
	.file 46 "/usr/include/x86_64-linux-gnu/bits/types/struct_tm.h"
	.file 47 "/usr/include/c++/11/bits/predefined_ops.h"
	.file 48 "/usr/include/c++/11/ext/alloc_traits.h"
	.file 49 "/usr/include/x86_64-linux-gnu/bits/types.h"
	.file 50 "/usr/include/x86_64-linux-gnu/bits/stdint-intn.h"
	.file 51 "/usr/include/x86_64-linux-gnu/bits/stdint-uintn.h"
	.file 52 "/usr/include/stdint.h"
	.file 53 "/usr/include/locale.h"
	.file 54 "/usr/include/x86_64-linux-gnu/bits/types/time_t.h"
	.file 55 "/usr/include/x86_64-linux-gnu/bits/types/struct_timespec.h"
	.file 56 "/usr/include/x86_64-linux-gnu/bits/types/clock_t.h"
	.file 57 "/usr/include/stdlib.h"
	.file 58 "/usr/include/x86_64-linux-gnu/bits/types/__fpos_t.h"
	.file 59 "/usr/include/stdio.h"
	.file 60 "/usr/include/x86_64-linux-gnu/bits/wctype-wchar.h"
	.file 61 "/usr/include/wctype.h"
	.file 62 "/usr/include/c++/11/pstl/execution_defs.h"
	.file 63 "/usr/include/time.h"
	.file 64 "/usr/include/c++/11/system_error"
	.file 65 "/usr/include/c++/11/string_view"
	.section	.debug_info,"",@progbits
.Ldebug_info0:
	.long	0x5ce3
	.value	0x5
	.byte	0x1
	.byte	0x8
	.long	.Ldebug_abbrev0
	.uleb128 0x6a
	.long	.LASF881
	.byte	0x21
	.long	.LASF0
	.long	.LASF1
	.long	.LLRL0
	.quad	0
	.long	.Ldebug_line0
	.uleb128 0x14
	.byte	0x20
	.byte	0x3
	.long	.LASF2
	.uleb128 0x14
	.byte	0x10
	.byte	0x4
	.long	.LASF3
	.uleb128 0x14
	.byte	0x4
	.byte	0x4
	.long	.LASF4
	.uleb128 0x14
	.byte	0x8
	.byte	0x4
	.long	.LASF5
	.uleb128 0x14
	.byte	0x10
	.byte	0x4
	.long	.LASF6
	.uleb128 0x5
	.long	.LASF13
	.byte	0xf
	.byte	0xd1
	.byte	0x17
	.long	0x59
	.uleb128 0x14
	.byte	0x8
	.byte	0x7
	.long	.LASF7
	.uleb128 0x9
	.long	0x59
	.uleb128 0x6b
	.long	.LASF203
	.byte	0x18
	.byte	0xe
	.byte	0
	.long	0x9a
	.uleb128 0x3c
	.long	.LASF8
	.long	0x9a
	.byte	0
	.uleb128 0x3c
	.long	.LASF9
	.long	0x9a
	.byte	0x4
	.uleb128 0x3c
	.long	.LASF10
	.long	0xa1
	.byte	0x8
	.uleb128 0x3c
	.long	.LASF11
	.long	0xa1
	.byte	0x10
	.byte	0
	.uleb128 0x14
	.byte	0x4
	.byte	0x7
	.long	.LASF12
	.uleb128 0x6c
	.byte	0x8
	.uleb128 0x5
	.long	.LASF14
	.byte	0x10
	.byte	0x14
	.byte	0x17
	.long	0x9a
	.uleb128 0x3d
	.byte	0x8
	.byte	0x11
	.byte	0xe
	.byte	0x1
	.long	.LASF714
	.long	0xf7
	.uleb128 0x6d
	.byte	0x4
	.byte	0x11
	.byte	0x11
	.byte	0x3
	.long	0xdc
	.uleb128 0x55
	.long	.LASF15
	.byte	0x12
	.byte	0x13
	.long	0x9a
	.uleb128 0x55
	.long	.LASF16
	.byte	0x13
	.byte	0xa
	.long	0xf7
	.byte	0
	.uleb128 0x6
	.long	.LASF17
	.byte	0x11
	.byte	0xf
	.byte	0x7
	.long	0x113
	.byte	0
	.uleb128 0x6
	.long	.LASF18
	.byte	0x11
	.byte	0x14
	.byte	0x5
	.long	0xbc
	.byte	0x4
	.byte	0
	.uleb128 0x45
	.long	0x107
	.long	0x107
	.uleb128 0x46
	.long	0x59
	.byte	0x3
	.byte	0
	.uleb128 0x14
	.byte	0x1
	.byte	0x6
	.long	.LASF19
	.uleb128 0x9
	.long	0x107
	.uleb128 0x6e
	.byte	0x4
	.byte	0x5
	.string	"int"
	.uleb128 0x9
	.long	0x113
	.uleb128 0x5
	.long	.LASF20
	.byte	0x11
	.byte	0x15
	.byte	0x3
	.long	0xaf
	.uleb128 0x5
	.long	.LASF21
	.byte	0x12
	.byte	0x6
	.byte	0x15
	.long	0x11f
	.uleb128 0x9
	.long	0x12b
	.uleb128 0x5
	.long	.LASF22
	.byte	0x13
	.byte	0x5
	.byte	0x19
	.long	0x148
	.uleb128 0x16
	.long	.LASF54
	.byte	0xd8
	.byte	0x14
	.byte	0x31
	.byte	0x8
	.long	0x2cf
	.uleb128 0x6
	.long	.LASF23
	.byte	0x14
	.byte	0x33
	.byte	0x7
	.long	0x113
	.byte	0
	.uleb128 0x6
	.long	.LASF24
	.byte	0x14
	.byte	0x36
	.byte	0x9
	.long	0x305e
	.byte	0x8
	.uleb128 0x6
	.long	.LASF25
	.byte	0x14
	.byte	0x37
	.byte	0x9
	.long	0x305e
	.byte	0x10
	.uleb128 0x6
	.long	.LASF26
	.byte	0x14
	.byte	0x38
	.byte	0x9
	.long	0x305e
	.byte	0x18
	.uleb128 0x6
	.long	.LASF27
	.byte	0x14
	.byte	0x39
	.byte	0x9
	.long	0x305e
	.byte	0x20
	.uleb128 0x6
	.long	.LASF28
	.byte	0x14
	.byte	0x3a
	.byte	0x9
	.long	0x305e
	.byte	0x28
	.uleb128 0x6
	.long	.LASF29
	.byte	0x14
	.byte	0x3b
	.byte	0x9
	.long	0x305e
	.byte	0x30
	.uleb128 0x6
	.long	.LASF30
	.byte	0x14
	.byte	0x3c
	.byte	0x9
	.long	0x305e
	.byte	0x38
	.uleb128 0x6
	.long	.LASF31
	.byte	0x14
	.byte	0x3d
	.byte	0x9
	.long	0x305e
	.byte	0x40
	.uleb128 0x6
	.long	.LASF32
	.byte	0x14
	.byte	0x40
	.byte	0x9
	.long	0x305e
	.byte	0x48
	.uleb128 0x6
	.long	.LASF33
	.byte	0x14
	.byte	0x41
	.byte	0x9
	.long	0x305e
	.byte	0x50
	.uleb128 0x6
	.long	.LASF34
	.byte	0x14
	.byte	0x42
	.byte	0x9
	.long	0x305e
	.byte	0x58
	.uleb128 0x6
	.long	.LASF35
	.byte	0x14
	.byte	0x44
	.byte	0x16
	.long	0x41a8
	.byte	0x60
	.uleb128 0x6
	.long	.LASF36
	.byte	0x14
	.byte	0x46
	.byte	0x14
	.long	0x41ad
	.byte	0x68
	.uleb128 0x6
	.long	.LASF37
	.byte	0x14
	.byte	0x48
	.byte	0x7
	.long	0x113
	.byte	0x70
	.uleb128 0x6
	.long	.LASF38
	.byte	0x14
	.byte	0x49
	.byte	0x7
	.long	0x113
	.byte	0x74
	.uleb128 0x6
	.long	.LASF39
	.byte	0x14
	.byte	0x4a
	.byte	0xb
	.long	0x3a54
	.byte	0x78
	.uleb128 0x6
	.long	.LASF40
	.byte	0x14
	.byte	0x4d
	.byte	0x12
	.long	0x2db
	.byte	0x80
	.uleb128 0x6
	.long	.LASF41
	.byte	0x14
	.byte	0x4e
	.byte	0xf
	.long	0x3907
	.byte	0x82
	.uleb128 0x6
	.long	.LASF42
	.byte	0x14
	.byte	0x4f
	.byte	0x8
	.long	0x41b2
	.byte	0x83
	.uleb128 0x6
	.long	.LASF43
	.byte	0x14
	.byte	0x51
	.byte	0xf
	.long	0x41c2
	.byte	0x88
	.uleb128 0x6
	.long	.LASF44
	.byte	0x14
	.byte	0x59
	.byte	0xd
	.long	0x3a60
	.byte	0x90
	.uleb128 0x6
	.long	.LASF45
	.byte	0x14
	.byte	0x5b
	.byte	0x17
	.long	0x41cc
	.byte	0x98
	.uleb128 0x6
	.long	.LASF46
	.byte	0x14
	.byte	0x5c
	.byte	0x19
	.long	0x41d6
	.byte	0xa0
	.uleb128 0x6
	.long	.LASF47
	.byte	0x14
	.byte	0x5d
	.byte	0x14
	.long	0x41ad
	.byte	0xa8
	.uleb128 0x6
	.long	.LASF48
	.byte	0x14
	.byte	0x5e
	.byte	0x9
	.long	0xa1
	.byte	0xb0
	.uleb128 0x6
	.long	.LASF49
	.byte	0x14
	.byte	0x5f
	.byte	0xa
	.long	0x4d
	.byte	0xb8
	.uleb128 0x6
	.long	.LASF50
	.byte	0x14
	.byte	0x60
	.byte	0x7
	.long	0x113
	.byte	0xc0
	.uleb128 0x6
	.long	.LASF51
	.byte	0x14
	.byte	0x62
	.byte	0x8
	.long	0x41db
	.byte	0xc4
	.byte	0
	.uleb128 0x5
	.long	.LASF52
	.byte	0x15
	.byte	0x7
	.byte	0x19
	.long	0x148
	.uleb128 0x14
	.byte	0x2
	.byte	0x7
	.long	.LASF53
	.uleb128 0x8
	.long	0x11a
	.uleb128 0x8
	.long	0x10e
	.uleb128 0x6f
	.string	"std"
	.byte	0x18
	.value	0x116
	.byte	0xb
	.long	0x2d26
	.uleb128 0x2
	.byte	0x16
	.byte	0x40
	.byte	0xb
	.long	0x12b
	.uleb128 0x2
	.byte	0x16
	.byte	0x8d
	.byte	0xb
	.long	0xa3
	.uleb128 0x2
	.byte	0x16
	.byte	0x8f
	.byte	0xb
	.long	0x2d26
	.uleb128 0x2
	.byte	0x16
	.byte	0x90
	.byte	0xb
	.long	0x2d3d
	.uleb128 0x2
	.byte	0x16
	.byte	0x91
	.byte	0xb
	.long	0x2d59
	.uleb128 0x2
	.byte	0x16
	.byte	0x92
	.byte	0xb
	.long	0x2d8b
	.uleb128 0x2
	.byte	0x16
	.byte	0x93
	.byte	0xb
	.long	0x2da7
	.uleb128 0x2
	.byte	0x16
	.byte	0x94
	.byte	0xb
	.long	0x2dc8
	.uleb128 0x2
	.byte	0x16
	.byte	0x95
	.byte	0xb
	.long	0x2de4
	.uleb128 0x2
	.byte	0x16
	.byte	0x96
	.byte	0xb
	.long	0x2e01
	.uleb128 0x2
	.byte	0x16
	.byte	0x97
	.byte	0xb
	.long	0x2e22
	.uleb128 0x2
	.byte	0x16
	.byte	0x98
	.byte	0xb
	.long	0x2e39
	.uleb128 0x2
	.byte	0x16
	.byte	0x99
	.byte	0xb
	.long	0x2e46
	.uleb128 0x2
	.byte	0x16
	.byte	0x9a
	.byte	0xb
	.long	0x2e6c
	.uleb128 0x2
	.byte	0x16
	.byte	0x9b
	.byte	0xb
	.long	0x2e92
	.uleb128 0x2
	.byte	0x16
	.byte	0x9c
	.byte	0xb
	.long	0x2eae
	.uleb128 0x2
	.byte	0x16
	.byte	0x9d
	.byte	0xb
	.long	0x2ed9
	.uleb128 0x2
	.byte	0x16
	.byte	0x9e
	.byte	0xb
	.long	0x2ef5
	.uleb128 0x2
	.byte	0x16
	.byte	0xa0
	.byte	0xb
	.long	0x2f0c
	.uleb128 0x2
	.byte	0x16
	.byte	0xa2
	.byte	0xb
	.long	0x2f2e
	.uleb128 0x2
	.byte	0x16
	.byte	0xa3
	.byte	0xb
	.long	0x2f4f
	.uleb128 0x2
	.byte	0x16
	.byte	0xa4
	.byte	0xb
	.long	0x2f6b
	.uleb128 0x2
	.byte	0x16
	.byte	0xa6
	.byte	0xb
	.long	0x2f91
	.uleb128 0x2
	.byte	0x16
	.byte	0xa9
	.byte	0xb
	.long	0x2fb6
	.uleb128 0x2
	.byte	0x16
	.byte	0xac
	.byte	0xb
	.long	0x2fdc
	.uleb128 0x2
	.byte	0x16
	.byte	0xae
	.byte	0xb
	.long	0x3001
	.uleb128 0x2
	.byte	0x16
	.byte	0xb0
	.byte	0xb
	.long	0x301d
	.uleb128 0x2
	.byte	0x16
	.byte	0xb2
	.byte	0xb
	.long	0x303d
	.uleb128 0x2
	.byte	0x16
	.byte	0xb3
	.byte	0xb
	.long	0x3063
	.uleb128 0x2
	.byte	0x16
	.byte	0xb4
	.byte	0xb
	.long	0x307e
	.uleb128 0x2
	.byte	0x16
	.byte	0xb5
	.byte	0xb
	.long	0x3099
	.uleb128 0x2
	.byte	0x16
	.byte	0xb6
	.byte	0xb
	.long	0x30b4
	.uleb128 0x2
	.byte	0x16
	.byte	0xb7
	.byte	0xb
	.long	0x30cf
	.uleb128 0x2
	.byte	0x16
	.byte	0xb8
	.byte	0xb
	.long	0x30ea
	.uleb128 0x2
	.byte	0x16
	.byte	0xb9
	.byte	0xb
	.long	0x31b7
	.uleb128 0x2
	.byte	0x16
	.byte	0xba
	.byte	0xb
	.long	0x31cd
	.uleb128 0x2
	.byte	0x16
	.byte	0xbb
	.byte	0xb
	.long	0x31ed
	.uleb128 0x2
	.byte	0x16
	.byte	0xbc
	.byte	0xb
	.long	0x320d
	.uleb128 0x2
	.byte	0x16
	.byte	0xbd
	.byte	0xb
	.long	0x322d
	.uleb128 0x2
	.byte	0x16
	.byte	0xbe
	.byte	0xb
	.long	0x3258
	.uleb128 0x2
	.byte	0x16
	.byte	0xbf
	.byte	0xb
	.long	0x3273
	.uleb128 0x2
	.byte	0x16
	.byte	0xc1
	.byte	0xb
	.long	0x3294
	.uleb128 0x2
	.byte	0x16
	.byte	0xc3
	.byte	0xb
	.long	0x32b0
	.uleb128 0x2
	.byte	0x16
	.byte	0xc4
	.byte	0xb
	.long	0x32d0
	.uleb128 0x2
	.byte	0x16
	.byte	0xc5
	.byte	0xb
	.long	0x32fd
	.uleb128 0x2
	.byte	0x16
	.byte	0xc6
	.byte	0xb
	.long	0x331e
	.uleb128 0x2
	.byte	0x16
	.byte	0xc7
	.byte	0xb
	.long	0x333e
	.uleb128 0x2
	.byte	0x16
	.byte	0xc8
	.byte	0xb
	.long	0x3355
	.uleb128 0x2
	.byte	0x16
	.byte	0xc9
	.byte	0xb
	.long	0x3376
	.uleb128 0x2
	.byte	0x16
	.byte	0xca
	.byte	0xb
	.long	0x3397
	.uleb128 0x2
	.byte	0x16
	.byte	0xcb
	.byte	0xb
	.long	0x33b8
	.uleb128 0x2
	.byte	0x16
	.byte	0xcc
	.byte	0xb
	.long	0x33d9
	.uleb128 0x2
	.byte	0x16
	.byte	0xcd
	.byte	0xb
	.long	0x33f1
	.uleb128 0x2
	.byte	0x16
	.byte	0xce
	.byte	0xb
	.long	0x340d
	.uleb128 0x2
	.byte	0x16
	.byte	0xce
	.byte	0xb
	.long	0x342c
	.uleb128 0x2
	.byte	0x16
	.byte	0xcf
	.byte	0xb
	.long	0x344b
	.uleb128 0x2
	.byte	0x16
	.byte	0xcf
	.byte	0xb
	.long	0x346a
	.uleb128 0x2
	.byte	0x16
	.byte	0xd0
	.byte	0xb
	.long	0x3489
	.uleb128 0x2
	.byte	0x16
	.byte	0xd0
	.byte	0xb
	.long	0x34a8
	.uleb128 0x2
	.byte	0x16
	.byte	0xd1
	.byte	0xb
	.long	0x34c7
	.uleb128 0x2
	.byte	0x16
	.byte	0xd1
	.byte	0xb
	.long	0x34e6
	.uleb128 0x2
	.byte	0x16
	.byte	0xd2
	.byte	0xb
	.long	0x3505
	.uleb128 0x2
	.byte	0x16
	.byte	0xd2
	.byte	0xb
	.long	0x3529
	.uleb128 0x17
	.byte	0x16
	.value	0x10b
	.byte	0x16
	.long	0x3871
	.uleb128 0x17
	.byte	0x16
	.value	0x10c
	.byte	0x16
	.long	0x388d
	.uleb128 0x17
	.byte	0x16
	.value	0x10d
	.byte	0x16
	.long	0x38b5
	.uleb128 0x17
	.byte	0x16
	.value	0x11b
	.byte	0xe
	.long	0x3294
	.uleb128 0x17
	.byte	0x16
	.value	0x11e
	.byte	0xe
	.long	0x2f91
	.uleb128 0x17
	.byte	0x16
	.value	0x121
	.byte	0xe
	.long	0x2fdc
	.uleb128 0x17
	.byte	0x16
	.value	0x124
	.byte	0xe
	.long	0x301d
	.uleb128 0x17
	.byte	0x16
	.value	0x128
	.byte	0xe
	.long	0x3871
	.uleb128 0x17
	.byte	0x16
	.value	0x129
	.byte	0xe
	.long	0x388d
	.uleb128 0x17
	.byte	0x16
	.value	0x12a
	.byte	0xe
	.long	0x38b5
	.uleb128 0x70
	.long	.LASF882
	.byte	0x7
	.byte	0x8
	.long	0x59
	.byte	0x1
	.byte	0x59
	.byte	0xe
	.uleb128 0x16
	.long	.LASF55
	.byte	0x1
	.byte	0x17
	.byte	0x41
	.byte	0xc
	.long	0x5c2
	.uleb128 0x5
	.long	.LASF56
	.byte	0x17
	.byte	0x44
	.byte	0x2d
	.long	0x38e3
	.uleb128 0x2d
	.long	.LASF57
	.byte	0x17
	.byte	0x46
	.byte	0x11
	.long	.LASF59
	.long	0x566
	.long	0x58a
	.long	0x590
	.uleb128 0x3
	.long	0x38ef
	.byte	0
	.uleb128 0x2d
	.long	.LASF58
	.byte	0x17
	.byte	0x4b
	.byte	0x1c
	.long	.LASF60
	.long	0x566
	.long	0x5a8
	.long	0x5ae
	.uleb128 0x3
	.long	0x38ef
	.byte	0
	.uleb128 0xd
	.string	"_Tp"
	.long	0x38e3
	.uleb128 0x56
	.string	"__v"
	.long	0x38e3
	.byte	0
	.byte	0
	.uleb128 0x9
	.long	0x559
	.uleb128 0x16
	.long	.LASF61
	.byte	0x1
	.byte	0x17
	.byte	0x41
	.byte	0xc
	.long	0x630
	.uleb128 0x5
	.long	.LASF56
	.byte	0x17
	.byte	0x44
	.byte	0x2d
	.long	0x38e3
	.uleb128 0x2d
	.long	.LASF62
	.byte	0x17
	.byte	0x46
	.byte	0x11
	.long	.LASF63
	.long	0x5d4
	.long	0x5f8
	.long	0x5fe
	.uleb128 0x3
	.long	0x38f4
	.byte	0
	.uleb128 0x2d
	.long	.LASF58
	.byte	0x17
	.byte	0x4b
	.byte	0x1c
	.long	.LASF64
	.long	0x5d4
	.long	0x616
	.long	0x61c
	.uleb128 0x3
	.long	0x38f4
	.byte	0
	.uleb128 0xd
	.string	"_Tp"
	.long	0x38e3
	.uleb128 0x56
	.string	"__v"
	.long	0x38e3
	.byte	0x1
	.byte	0
	.uleb128 0x9
	.long	0x5c7
	.uleb128 0x5
	.long	.LASF65
	.byte	0x17
	.byte	0x56
	.byte	0x9
	.long	0x559
	.uleb128 0x19
	.long	.LASF13
	.byte	0x18
	.value	0x118
	.byte	0x1a
	.long	0x59
	.uleb128 0x9
	.long	0x641
	.uleb128 0x47
	.long	.LASF66
	.byte	0x17
	.value	0xa80
	.uleb128 0x47
	.long	.LASF67
	.byte	0x17
	.value	0xad6
	.uleb128 0x3e
	.long	.LASF68
	.byte	0x19
	.byte	0x3f
	.byte	0xd
	.long	0x840
	.uleb128 0x27
	.long	.LASF70
	.byte	0x8
	.byte	0x19
	.byte	0x5a
	.byte	0xb
	.long	0x832
	.uleb128 0x6
	.long	.LASF69
	.byte	0x19
	.byte	0x5c
	.byte	0xd
	.long	0xa1
	.byte	0
	.uleb128 0x71
	.long	.LASF70
	.byte	0x19
	.byte	0x5e
	.byte	0x10
	.long	.LASF71
	.long	0x69d
	.long	0x6a8
	.uleb128 0x3
	.long	0x392a
	.uleb128 0x1
	.long	0xa1
	.byte	0
	.uleb128 0x22
	.long	.LASF72
	.byte	0x19
	.byte	0x60
	.byte	0xc
	.long	.LASF74
	.long	0x6bc
	.long	0x6c2
	.uleb128 0x3
	.long	0x392a
	.byte	0
	.uleb128 0x22
	.long	.LASF73
	.byte	0x19
	.byte	0x61
	.byte	0xc
	.long	.LASF75
	.long	0x6d6
	.long	0x6dc
	.uleb128 0x3
	.long	0x392a
	.byte	0
	.uleb128 0x2d
	.long	.LASF76
	.byte	0x19
	.byte	0x63
	.byte	0xd
	.long	.LASF77
	.long	0xa1
	.long	0x6f4
	.long	0x6fa
	.uleb128 0x3
	.long	0x392f
	.byte	0
	.uleb128 0x1d
	.long	.LASF70
	.byte	0x19
	.byte	0x6b
	.byte	0x7
	.long	.LASF78
	.long	0x70e
	.long	0x714
	.uleb128 0x3
	.long	0x392a
	.byte	0
	.uleb128 0x1d
	.long	.LASF70
	.byte	0x19
	.byte	0x6d
	.byte	0x7
	.long	.LASF79
	.long	0x728
	.long	0x733
	.uleb128 0x3
	.long	0x392a
	.uleb128 0x1
	.long	0x3934
	.byte	0
	.uleb128 0x1d
	.long	.LASF70
	.byte	0x19
	.byte	0x70
	.byte	0x7
	.long	.LASF80
	.long	0x747
	.long	0x752
	.uleb128 0x3
	.long	0x392a
	.uleb128 0x1
	.long	0x85e
	.byte	0
	.uleb128 0x1d
	.long	.LASF70
	.byte	0x19
	.byte	0x74
	.byte	0x7
	.long	.LASF81
	.long	0x766
	.long	0x771
	.uleb128 0x3
	.long	0x392a
	.uleb128 0x1
	.long	0x3939
	.byte	0
	.uleb128 0x1b
	.long	.LASF82
	.byte	0x19
	.byte	0x81
	.byte	0x7
	.long	.LASF83
	.long	0x393e
	.byte	0x1
	.long	0x78a
	.long	0x795
	.uleb128 0x3
	.long	0x392a
	.uleb128 0x1
	.long	0x3934
	.byte	0
	.uleb128 0x1b
	.long	.LASF82
	.byte	0x19
	.byte	0x85
	.byte	0x7
	.long	.LASF84
	.long	0x393e
	.byte	0x1
	.long	0x7ae
	.long	0x7b9
	.uleb128 0x3
	.long	0x392a
	.uleb128 0x1
	.long	0x3939
	.byte	0
	.uleb128 0x1d
	.long	.LASF85
	.byte	0x19
	.byte	0x8c
	.byte	0x7
	.long	.LASF86
	.long	0x7cd
	.long	0x7d8
	.uleb128 0x3
	.long	0x392a
	.uleb128 0x3
	.long	0x113
	.byte	0
	.uleb128 0x1d
	.long	.LASF87
	.byte	0x19
	.byte	0x8f
	.byte	0x7
	.long	.LASF88
	.long	0x7ec
	.long	0x7f7
	.uleb128 0x3
	.long	0x392a
	.uleb128 0x1
	.long	0x393e
	.byte	0
	.uleb128 0x72
	.long	.LASF254
	.byte	0x19
	.byte	0x9b
	.byte	0x10
	.long	.LASF255
	.long	0x38e3
	.byte	0x1
	.long	0x810
	.long	0x816
	.uleb128 0x3
	.long	0x392f
	.byte	0
	.uleb128 0x73
	.long	.LASF89
	.byte	0x19
	.byte	0xb0
	.byte	0x7
	.long	.LASF90
	.long	0x3943
	.byte	0x1
	.long	0x82b
	.uleb128 0x3
	.long	0x392f
	.byte	0
	.byte	0
	.uleb128 0x9
	.long	0x66f
	.uleb128 0x2
	.byte	0x19
	.byte	0x54
	.byte	0x10
	.long	0x848
	.byte	0
	.uleb128 0x2
	.byte	0x19
	.byte	0x44
	.byte	0x1a
	.long	0x66f
	.uleb128 0x57
	.long	.LASF91
	.byte	0x19
	.byte	0x50
	.byte	0x8
	.long	.LASF92
	.long	0x85e
	.uleb128 0x1
	.long	0x66f
	.byte	0
	.uleb128 0x19
	.long	.LASF93
	.byte	0x18
	.value	0x11c
	.byte	0x1d
	.long	0x38dd
	.uleb128 0x36
	.long	.LASF455
	.uleb128 0x9
	.long	0x86b
	.uleb128 0x74
	.long	.LASF883
	.byte	0x1
	.byte	0xc
	.byte	0x5d
	.byte	0xa
	.uleb128 0x16
	.long	.LASF94
	.byte	0x1
	.byte	0xc
	.byte	0x63
	.byte	0xa
	.long	0x891
	.uleb128 0x2e
	.long	0x875
	.byte	0
	.uleb128 0x16
	.long	.LASF95
	.byte	0x1
	.byte	0xc
	.byte	0x67
	.byte	0xa
	.long	0x8a4
	.uleb128 0x2e
	.long	0x87e
	.byte	0
	.uleb128 0x16
	.long	.LASF96
	.byte	0x1
	.byte	0xc
	.byte	0x6b
	.byte	0xa
	.long	0x8b7
	.uleb128 0x2e
	.long	0x891
	.byte	0
	.uleb128 0x3f
	.long	.LASF97
	.byte	0x1a
	.byte	0x32
	.byte	0xd
	.uleb128 0x28
	.long	.LASF98
	.byte	0x1
	.byte	0x1b
	.value	0x158
	.byte	0xc
	.long	0xaa7
	.uleb128 0x37
	.long	.LASF112
	.byte	0x1b
	.value	0x164
	.byte	0x7
	.long	.LASF211
	.long	0x8e9
	.uleb128 0x1
	.long	0x395e
	.uleb128 0x1
	.long	0x3963
	.byte	0
	.uleb128 0x19
	.long	.LASF99
	.byte	0x1b
	.value	0x15a
	.byte	0x21
	.long	0x107
	.uleb128 0x9
	.long	0x8e9
	.uleb128 0x58
	.string	"eq"
	.value	0x168
	.long	.LASF100
	.long	0x38e3
	.long	0x918
	.uleb128 0x1
	.long	0x3963
	.uleb128 0x1
	.long	0x3963
	.byte	0
	.uleb128 0x58
	.string	"lt"
	.value	0x16c
	.long	.LASF101
	.long	0x38e3
	.long	0x935
	.uleb128 0x1
	.long	0x3963
	.uleb128 0x1
	.long	0x3963
	.byte	0
	.uleb128 0xc
	.long	.LASF102
	.byte	0x1b
	.value	0x174
	.byte	0x7
	.long	.LASF104
	.long	0x113
	.long	0x95a
	.uleb128 0x1
	.long	0x3968
	.uleb128 0x1
	.long	0x3968
	.uleb128 0x1
	.long	0x641
	.byte	0
	.uleb128 0xc
	.long	.LASF103
	.byte	0x1b
	.value	0x189
	.byte	0x7
	.long	.LASF105
	.long	0x641
	.long	0x975
	.uleb128 0x1
	.long	0x3968
	.byte	0
	.uleb128 0xc
	.long	.LASF106
	.byte	0x1b
	.value	0x193
	.byte	0x7
	.long	.LASF107
	.long	0x3968
	.long	0x99a
	.uleb128 0x1
	.long	0x3968
	.uleb128 0x1
	.long	0x641
	.uleb128 0x1
	.long	0x3963
	.byte	0
	.uleb128 0xc
	.long	.LASF108
	.byte	0x1b
	.value	0x1a1
	.byte	0x7
	.long	.LASF109
	.long	0x396d
	.long	0x9bf
	.uleb128 0x1
	.long	0x396d
	.uleb128 0x1
	.long	0x3968
	.uleb128 0x1
	.long	0x641
	.byte	0
	.uleb128 0xc
	.long	.LASF110
	.byte	0x1b
	.value	0x1ad
	.byte	0x7
	.long	.LASF111
	.long	0x396d
	.long	0x9e4
	.uleb128 0x1
	.long	0x396d
	.uleb128 0x1
	.long	0x3968
	.uleb128 0x1
	.long	0x641
	.byte	0
	.uleb128 0xc
	.long	.LASF112
	.byte	0x1b
	.value	0x1b9
	.byte	0x7
	.long	.LASF113
	.long	0x396d
	.long	0xa09
	.uleb128 0x1
	.long	0x396d
	.uleb128 0x1
	.long	0x641
	.uleb128 0x1
	.long	0x8e9
	.byte	0
	.uleb128 0xc
	.long	.LASF114
	.byte	0x1b
	.value	0x1c5
	.byte	0x7
	.long	.LASF115
	.long	0x8e9
	.long	0xa24
	.uleb128 0x1
	.long	0x3972
	.byte	0
	.uleb128 0x19
	.long	.LASF116
	.byte	0x1b
	.value	0x15b
	.byte	0x21
	.long	0x113
	.uleb128 0x9
	.long	0xa24
	.uleb128 0xc
	.long	.LASF117
	.byte	0x1b
	.value	0x1cb
	.byte	0x7
	.long	.LASF118
	.long	0xa24
	.long	0xa51
	.uleb128 0x1
	.long	0x3963
	.byte	0
	.uleb128 0xc
	.long	.LASF119
	.byte	0x1b
	.value	0x1cf
	.byte	0x7
	.long	.LASF120
	.long	0x38e3
	.long	0xa71
	.uleb128 0x1
	.long	0x3972
	.uleb128 0x1
	.long	0x3972
	.byte	0
	.uleb128 0x2f
	.string	"eof"
	.byte	0x1b
	.value	0x1d3
	.byte	0x7
	.long	.LASF195
	.long	0xa24
	.uleb128 0xc
	.long	.LASF121
	.byte	0x1b
	.value	0x1d7
	.byte	0x7
	.long	.LASF122
	.long	0xa24
	.long	0xa9d
	.uleb128 0x1
	.long	0x3972
	.byte	0
	.uleb128 0x4
	.long	.LASF123
	.long	0x107
	.byte	0
	.uleb128 0x2
	.byte	0x1c
	.byte	0x2f
	.byte	0xb
	.long	0x3a90
	.uleb128 0x2
	.byte	0x1c
	.byte	0x30
	.byte	0xb
	.long	0x3a9c
	.uleb128 0x2
	.byte	0x1c
	.byte	0x31
	.byte	0xb
	.long	0x3aa8
	.uleb128 0x2
	.byte	0x1c
	.byte	0x32
	.byte	0xb
	.long	0x3ab4
	.uleb128 0x2
	.byte	0x1c
	.byte	0x34
	.byte	0xb
	.long	0x3b50
	.uleb128 0x2
	.byte	0x1c
	.byte	0x35
	.byte	0xb
	.long	0x3b5c
	.uleb128 0x2
	.byte	0x1c
	.byte	0x36
	.byte	0xb
	.long	0x3b68
	.uleb128 0x2
	.byte	0x1c
	.byte	0x37
	.byte	0xb
	.long	0x3b74
	.uleb128 0x2
	.byte	0x1c
	.byte	0x39
	.byte	0xb
	.long	0x3af0
	.uleb128 0x2
	.byte	0x1c
	.byte	0x3a
	.byte	0xb
	.long	0x3afc
	.uleb128 0x2
	.byte	0x1c
	.byte	0x3b
	.byte	0xb
	.long	0x3b08
	.uleb128 0x2
	.byte	0x1c
	.byte	0x3c
	.byte	0xb
	.long	0x3b14
	.uleb128 0x2
	.byte	0x1c
	.byte	0x3e
	.byte	0xb
	.long	0x3bc8
	.uleb128 0x2
	.byte	0x1c
	.byte	0x3f
	.byte	0xb
	.long	0x3bb0
	.uleb128 0x2
	.byte	0x1c
	.byte	0x41
	.byte	0xb
	.long	0x3ac0
	.uleb128 0x2
	.byte	0x1c
	.byte	0x42
	.byte	0xb
	.long	0x3acc
	.uleb128 0x2
	.byte	0x1c
	.byte	0x43
	.byte	0xb
	.long	0x3ad8
	.uleb128 0x2
	.byte	0x1c
	.byte	0x44
	.byte	0xb
	.long	0x3ae4
	.uleb128 0x2
	.byte	0x1c
	.byte	0x46
	.byte	0xb
	.long	0x3b80
	.uleb128 0x2
	.byte	0x1c
	.byte	0x47
	.byte	0xb
	.long	0x3b8c
	.uleb128 0x2
	.byte	0x1c
	.byte	0x48
	.byte	0xb
	.long	0x3b98
	.uleb128 0x2
	.byte	0x1c
	.byte	0x49
	.byte	0xb
	.long	0x3ba4
	.uleb128 0x2
	.byte	0x1c
	.byte	0x4b
	.byte	0xb
	.long	0x3b20
	.uleb128 0x2
	.byte	0x1c
	.byte	0x4c
	.byte	0xb
	.long	0x3b2c
	.uleb128 0x2
	.byte	0x1c
	.byte	0x4d
	.byte	0xb
	.long	0x3b38
	.uleb128 0x2
	.byte	0x1c
	.byte	0x4e
	.byte	0xb
	.long	0x3b44
	.uleb128 0x2
	.byte	0x1c
	.byte	0x50
	.byte	0xb
	.long	0x3bd9
	.uleb128 0x2
	.byte	0x1c
	.byte	0x51
	.byte	0xb
	.long	0x3bbc
	.uleb128 0x2
	.byte	0x1d
	.byte	0x35
	.byte	0xb
	.long	0x3be5
	.uleb128 0x2
	.byte	0x1d
	.byte	0x36
	.byte	0xb
	.long	0x3d2b
	.uleb128 0x2
	.byte	0x1d
	.byte	0x37
	.byte	0xb
	.long	0x3d46
	.uleb128 0x5
	.long	.LASF124
	.byte	0x17
	.byte	0x53
	.byte	0x9
	.long	0x5c7
	.uleb128 0x16
	.long	.LASF125
	.byte	0x1
	.byte	0xa
	.byte	0xa8
	.byte	0xc
	.long	0xbd9
	.uleb128 0x75
	.long	.LASF734
	.byte	0xa
	.byte	0xac
	.byte	0x9
	.long	.LASF884
	.uleb128 0x4
	.long	.LASF126
	.long	0x47b4
	.uleb128 0x1
	.long	0x47b4
	.uleb128 0x1
	.long	0x47b4
	.byte	0
	.byte	0
	.uleb128 0x2
	.byte	0x1e
	.byte	0x7f
	.byte	0xb
	.long	0x3dca
	.uleb128 0x2
	.byte	0x1e
	.byte	0x80
	.byte	0xb
	.long	0x3dfd
	.uleb128 0x2
	.byte	0x1e
	.byte	0x86
	.byte	0xb
	.long	0x3e62
	.uleb128 0x2
	.byte	0x1e
	.byte	0x89
	.byte	0xb
	.long	0x3e80
	.uleb128 0x2
	.byte	0x1e
	.byte	0x8c
	.byte	0xb
	.long	0x3e9b
	.uleb128 0x2
	.byte	0x1e
	.byte	0x8d
	.byte	0xb
	.long	0x3eb1
	.uleb128 0x2
	.byte	0x1e
	.byte	0x8e
	.byte	0xb
	.long	0x3ec7
	.uleb128 0x2
	.byte	0x1e
	.byte	0x8f
	.byte	0xb
	.long	0x3edd
	.uleb128 0x2
	.byte	0x1e
	.byte	0x91
	.byte	0xb
	.long	0x3f08
	.uleb128 0x2
	.byte	0x1e
	.byte	0x94
	.byte	0xb
	.long	0x3f25
	.uleb128 0x2
	.byte	0x1e
	.byte	0x96
	.byte	0xb
	.long	0x3f3c
	.uleb128 0x2
	.byte	0x1e
	.byte	0x99
	.byte	0xb
	.long	0x3f58
	.uleb128 0x2
	.byte	0x1e
	.byte	0x9a
	.byte	0xb
	.long	0x3f74
	.uleb128 0x2
	.byte	0x1e
	.byte	0x9b
	.byte	0xb
	.long	0x3f95
	.uleb128 0x2
	.byte	0x1e
	.byte	0x9d
	.byte	0xb
	.long	0x3fb6
	.uleb128 0x2
	.byte	0x1e
	.byte	0xa0
	.byte	0xb
	.long	0x3fd7
	.uleb128 0x2
	.byte	0x1e
	.byte	0xa3
	.byte	0xb
	.long	0x3feb
	.uleb128 0x2
	.byte	0x1e
	.byte	0xa5
	.byte	0xb
	.long	0x3ff8
	.uleb128 0x2
	.byte	0x1e
	.byte	0xa6
	.byte	0xb
	.long	0x400a
	.uleb128 0x2
	.byte	0x1e
	.byte	0xa7
	.byte	0xb
	.long	0x402a
	.uleb128 0x2
	.byte	0x1e
	.byte	0xa8
	.byte	0xb
	.long	0x404a
	.uleb128 0x2
	.byte	0x1e
	.byte	0xa9
	.byte	0xb
	.long	0x406a
	.uleb128 0x2
	.byte	0x1e
	.byte	0xab
	.byte	0xb
	.long	0x4081
	.uleb128 0x2
	.byte	0x1e
	.byte	0xac
	.byte	0xb
	.long	0x40a2
	.uleb128 0x2
	.byte	0x1e
	.byte	0xf0
	.byte	0x16
	.long	0x3e30
	.uleb128 0x2
	.byte	0x1e
	.byte	0xf5
	.byte	0x16
	.long	0x35b5
	.uleb128 0x2
	.byte	0x1e
	.byte	0xf6
	.byte	0x16
	.long	0x40be
	.uleb128 0x2
	.byte	0x1e
	.byte	0xf8
	.byte	0x16
	.long	0x40da
	.uleb128 0x2
	.byte	0x1e
	.byte	0xf9
	.byte	0x16
	.long	0x4130
	.uleb128 0x2
	.byte	0x1e
	.byte	0xfa
	.byte	0x16
	.long	0x40f0
	.uleb128 0x2
	.byte	0x1e
	.byte	0xfb
	.byte	0x16
	.long	0x4110
	.uleb128 0x2
	.byte	0x1e
	.byte	0xfc
	.byte	0x16
	.long	0x414b
	.uleb128 0x2
	.byte	0x1f
	.byte	0x62
	.byte	0xb
	.long	0x2cf
	.uleb128 0x2
	.byte	0x1f
	.byte	0x63
	.byte	0xb
	.long	0x41eb
	.uleb128 0x2
	.byte	0x1f
	.byte	0x65
	.byte	0xb
	.long	0x4201
	.uleb128 0x2
	.byte	0x1f
	.byte	0x66
	.byte	0xb
	.long	0x4213
	.uleb128 0x2
	.byte	0x1f
	.byte	0x67
	.byte	0xb
	.long	0x4229
	.uleb128 0x2
	.byte	0x1f
	.byte	0x68
	.byte	0xb
	.long	0x4240
	.uleb128 0x2
	.byte	0x1f
	.byte	0x69
	.byte	0xb
	.long	0x4257
	.uleb128 0x2
	.byte	0x1f
	.byte	0x6a
	.byte	0xb
	.long	0x426d
	.uleb128 0x2
	.byte	0x1f
	.byte	0x6b
	.byte	0xb
	.long	0x4284
	.uleb128 0x2
	.byte	0x1f
	.byte	0x6c
	.byte	0xb
	.long	0x42a5
	.uleb128 0x2
	.byte	0x1f
	.byte	0x6d
	.byte	0xb
	.long	0x42c6
	.uleb128 0x2
	.byte	0x1f
	.byte	0x71
	.byte	0xb
	.long	0x42e2
	.uleb128 0x2
	.byte	0x1f
	.byte	0x72
	.byte	0xb
	.long	0x4308
	.uleb128 0x2
	.byte	0x1f
	.byte	0x74
	.byte	0xb
	.long	0x4329
	.uleb128 0x2
	.byte	0x1f
	.byte	0x75
	.byte	0xb
	.long	0x434a
	.uleb128 0x2
	.byte	0x1f
	.byte	0x76
	.byte	0xb
	.long	0x436b
	.uleb128 0x2
	.byte	0x1f
	.byte	0x78
	.byte	0xb
	.long	0x4382
	.uleb128 0x2
	.byte	0x1f
	.byte	0x79
	.byte	0xb
	.long	0x4399
	.uleb128 0x2
	.byte	0x1f
	.byte	0x7e
	.byte	0xb
	.long	0x43a6
	.uleb128 0x2
	.byte	0x1f
	.byte	0x83
	.byte	0xb
	.long	0x43b8
	.uleb128 0x2
	.byte	0x1f
	.byte	0x84
	.byte	0xb
	.long	0x43ce
	.uleb128 0x2
	.byte	0x1f
	.byte	0x85
	.byte	0xb
	.long	0x43e9
	.uleb128 0x2
	.byte	0x1f
	.byte	0x87
	.byte	0xb
	.long	0x43fb
	.uleb128 0x2
	.byte	0x1f
	.byte	0x88
	.byte	0xb
	.long	0x4412
	.uleb128 0x2
	.byte	0x1f
	.byte	0x8b
	.byte	0xb
	.long	0x4438
	.uleb128 0x2
	.byte	0x1f
	.byte	0x8d
	.byte	0xb
	.long	0x4444
	.uleb128 0x2
	.byte	0x1f
	.byte	0x8f
	.byte	0xb
	.long	0x445a
	.uleb128 0x59
	.long	.LASF127
	.byte	0x18
	.value	0x12e
	.byte	0x41
	.uleb128 0x76
	.string	"_V2"
	.byte	0x40
	.byte	0x50
	.byte	0x14
	.uleb128 0x48
	.long	.LASF134
	.long	0xe59
	.uleb128 0x77
	.long	.LASF128
	.byte	0x1
	.byte	0x20
	.value	0x272
	.byte	0xb
	.byte	0x1
	.long	0xe53
	.uleb128 0x5a
	.long	.LASF128
	.value	0x276
	.long	.LASF130
	.long	0xded
	.long	0xdf3
	.uleb128 0x3
	.long	0x4476
	.byte	0
	.uleb128 0x5a
	.long	.LASF129
	.value	0x277
	.long	.LASF131
	.long	0xe06
	.long	0xe11
	.uleb128 0x3
	.long	0x4476
	.uleb128 0x3
	.long	0x113
	.byte	0
	.uleb128 0x49
	.long	.LASF128
	.byte	0x20
	.value	0x27a
	.long	.LASF132
	.long	0xe25
	.long	0xe30
	.uleb128 0x3
	.long	0x4476
	.uleb128 0x1
	.long	0x4480
	.byte	0
	.uleb128 0x78
	.long	.LASF82
	.byte	0x20
	.value	0x27b
	.byte	0xd
	.long	.LASF133
	.long	0x4485
	.byte	0x1
	.byte	0x1
	.long	0xe47
	.uleb128 0x3
	.long	0x4476
	.uleb128 0x1
	.long	0x4480
	.byte	0
	.byte	0
	.uleb128 0x9
	.long	0xdcb
	.byte	0
	.uleb128 0x2
	.byte	0x21
	.byte	0x52
	.byte	0xb
	.long	0x4496
	.uleb128 0x2
	.byte	0x21
	.byte	0x53
	.byte	0xb
	.long	0x448a
	.uleb128 0x2
	.byte	0x21
	.byte	0x54
	.byte	0xb
	.long	0xa3
	.uleb128 0x2
	.byte	0x21
	.byte	0x5c
	.byte	0xb
	.long	0x44a7
	.uleb128 0x2
	.byte	0x21
	.byte	0x65
	.byte	0xb
	.long	0x44c2
	.uleb128 0x2
	.byte	0x21
	.byte	0x68
	.byte	0xb
	.long	0x44dd
	.uleb128 0x2
	.byte	0x21
	.byte	0x69
	.byte	0xb
	.long	0x44f3
	.uleb128 0x48
	.long	.LASF135
	.long	0xf25
	.uleb128 0x1b
	.long	.LASF136
	.byte	0x22
	.byte	0x69
	.byte	0x5
	.long	.LASF137
	.long	0x450e
	.byte	0x1
	.long	0xeb3
	.long	0xebe
	.uleb128 0x3
	.long	0x48c6
	.uleb128 0x1
	.long	0x113
	.byte	0
	.uleb128 0x23
	.long	.LASF141
	.byte	0x23
	.byte	0x47
	.byte	0x2f
	.long	0xe91
	.uleb128 0x1b
	.long	.LASF136
	.byte	0x23
	.byte	0xa6
	.byte	0x7
	.long	.LASF138
	.long	0x557a
	.byte	0x1
	.long	0xee3
	.long	0xeee
	.uleb128 0x3
	.long	0x48c6
	.uleb128 0x1
	.long	0x32f1
	.byte	0
	.uleb128 0x1b
	.long	.LASF136
	.byte	0x23
	.byte	0x6c
	.byte	0x7
	.long	.LASF139
	.long	0x557a
	.byte	0x1
	.long	0xf07
	.long	0xf12
	.uleb128 0x3
	.long	0x48c6
	.uleb128 0x1
	.long	0x55eb
	.byte	0
	.uleb128 0x4
	.long	.LASF123
	.long	0x107
	.uleb128 0x4a
	.long	.LASF145
	.long	0x8bf
	.byte	0
	.uleb128 0x48
	.long	.LASF140
	.long	0xf71
	.uleb128 0x23
	.long	.LASF142
	.byte	0x24
	.byte	0x47
	.byte	0x2f
	.long	0xf25
	.uleb128 0x1b
	.long	.LASF143
	.byte	0x24
	.byte	0xb3
	.byte	0x7
	.long	.LASF144
	.long	0x48d0
	.byte	0x1
	.long	0xf53
	.long	0xf5e
	.uleb128 0x3
	.long	0x48d5
	.uleb128 0x1
	.long	0x47c8
	.byte	0
	.uleb128 0x4
	.long	.LASF123
	.long	0x107
	.uleb128 0x4a
	.long	.LASF145
	.long	0x8bf
	.byte	0
	.uleb128 0x5
	.long	.LASF146
	.byte	0x25
	.byte	0x8a
	.byte	0x21
	.long	0xf25
	.uleb128 0x79
	.string	"cin"
	.byte	0xd
	.byte	0x3c
	.byte	0x12
	.long	.LASF885
	.long	0xf71
	.uleb128 0x5
	.long	.LASF147
	.byte	0x25
	.byte	0x8d
	.byte	0x21
	.long	0xe91
	.uleb128 0x7a
	.long	.LASF148
	.byte	0xd
	.byte	0x3d
	.byte	0x12
	.long	.LASF886
	.long	0xf8d
	.uleb128 0x7b
	.long	.LASF832
	.byte	0xd
	.byte	0x4a
	.byte	0x19
	.long	0xdcb
	.uleb128 0x16
	.long	.LASF149
	.byte	0x1
	.byte	0x9
	.byte	0xf9
	.byte	0xc
	.long	0x100b
	.uleb128 0x1a
	.long	.LASF150
	.byte	0x9
	.byte	0xfd
	.byte	0x9
	.long	.LASF151
	.long	0x47b4
	.long	0x1001
	.uleb128 0x4
	.long	.LASF126
	.long	0x47b4
	.uleb128 0x4
	.long	.LASF152
	.long	0x59
	.uleb128 0xd
	.string	"_Tp"
	.long	0x113
	.uleb128 0x1
	.long	0x47b4
	.uleb128 0x1
	.long	0x59
	.uleb128 0x1
	.long	0x4509
	.byte	0
	.uleb128 0x30
	.long	.LASF153
	.long	0x38e3
	.byte	0
	.uleb128 0x28
	.long	.LASF154
	.byte	0x1
	.byte	0x9
	.value	0x24f
	.byte	0xc
	.long	0x1055
	.uleb128 0xc
	.long	.LASF155
	.byte	0x9
	.value	0x253
	.byte	0x9
	.long	.LASF156
	.long	0x47b4
	.long	0x104b
	.uleb128 0x4
	.long	.LASF126
	.long	0x47b4
	.uleb128 0x4
	.long	.LASF152
	.long	0x59
	.uleb128 0x1
	.long	0x47b4
	.uleb128 0x1
	.long	0x59
	.byte	0
	.uleb128 0x30
	.long	.LASF153
	.long	0x38e3
	.byte	0
	.uleb128 0x47
	.long	.LASF157
	.byte	0x26
	.value	0x53e
	.uleb128 0x3f
	.long	.LASF158
	.byte	0x27
	.byte	0xdb
	.byte	0xd
	.uleb128 0x2
	.byte	0x28
	.byte	0x3c
	.byte	0xb
	.long	0x3d90
	.uleb128 0x2
	.byte	0x28
	.byte	0x3d
	.byte	0xb
	.long	0x3d57
	.uleb128 0x2
	.byte	0x28
	.byte	0x3e
	.byte	0xb
	.long	0x3115
	.uleb128 0x2
	.byte	0x28
	.byte	0x40
	.byte	0xb
	.long	0x4684
	.uleb128 0x2
	.byte	0x28
	.byte	0x41
	.byte	0xb
	.long	0x4690
	.uleb128 0x2
	.byte	0x28
	.byte	0x42
	.byte	0xb
	.long	0x46ab
	.uleb128 0x2
	.byte	0x28
	.byte	0x43
	.byte	0xb
	.long	0x46c6
	.uleb128 0x2
	.byte	0x28
	.byte	0x44
	.byte	0xb
	.long	0x46e1
	.uleb128 0x2
	.byte	0x28
	.byte	0x45
	.byte	0xb
	.long	0x46f7
	.uleb128 0x2
	.byte	0x28
	.byte	0x46
	.byte	0xb
	.long	0x4712
	.uleb128 0x2
	.byte	0x28
	.byte	0x47
	.byte	0xb
	.long	0x4728
	.uleb128 0x2
	.byte	0x28
	.byte	0x4f
	.byte	0xb
	.long	0x3d68
	.uleb128 0x2
	.byte	0x28
	.byte	0x50
	.byte	0xb
	.long	0x473e
	.uleb128 0x28
	.long	.LASF159
	.byte	0x1
	.byte	0x29
	.value	0x10a
	.byte	0xc
	.long	0x1117
	.uleb128 0x4b
	.string	"num"
	.value	0x111
	.long	.LASF160
	.long	0x3bd4
	.uleb128 0x7c
	.string	"den"
	.byte	0x29
	.value	0x114
	.byte	0x21
	.long	.LASF161
	.long	0x3bd4
	.long	0x3b9aca00
	.byte	0x1
	.uleb128 0x30
	.long	.LASF162
	.long	0x32f1
	.uleb128 0x7d
	.long	.LASF163
	.long	0x32f1
	.long	0x3b9aca00
	.byte	0
	.uleb128 0x3e
	.long	.LASF164
	.byte	0x3
	.byte	0x46
	.byte	0xd
	.long	0x1690
	.uleb128 0x28
	.long	.LASF165
	.byte	0x8
	.byte	0x3
	.value	0x1cb
	.byte	0xe
	.long	0x13d1
	.uleb128 0x4c
	.long	.LASF166
	.byte	0x3
	.value	0x1d2
	.byte	0x2
	.long	.LASF168
	.long	0x3bc8
	.byte	0x3
	.long	0x1152
	.uleb128 0x1
	.long	0x3bc8
	.uleb128 0x1
	.long	0x3bc8
	.byte	0
	.uleb128 0x38
	.long	.LASF167
	.byte	0x3
	.value	0x200
	.byte	0xc
	.long	.LASF169
	.long	0x1167
	.long	0x116d
	.uleb128 0x3
	.long	0x475f
	.byte	0
	.uleb128 0x38
	.long	.LASF167
	.byte	0x3
	.value	0x202
	.byte	0x2
	.long	.LASF170
	.long	0x1182
	.long	0x118d
	.uleb128 0x3
	.long	0x475f
	.uleb128 0x1
	.long	0x4769
	.byte	0
	.uleb128 0x38
	.long	.LASF171
	.byte	0x3
	.value	0x214
	.byte	0x2
	.long	.LASF172
	.long	0x11a2
	.long	0x11ad
	.uleb128 0x3
	.long	0x475f
	.uleb128 0x3
	.long	0x113
	.byte	0
	.uleb128 0x7e
	.long	.LASF82
	.byte	0x3
	.value	0x215
	.byte	0xc
	.long	.LASF173
	.long	0x476e
	.byte	0x1
	.long	0x11c7
	.long	0x11d2
	.uleb128 0x3
	.long	0x475f
	.uleb128 0x1
	.long	0x4769
	.byte	0
	.uleb128 0x7f
	.string	"rep"
	.byte	0x3
	.value	0x1f7
	.byte	0x8
	.long	0x32f1
	.uleb128 0x9
	.long	0x11d2
	.uleb128 0x18
	.long	.LASF174
	.byte	0x3
	.value	0x219
	.byte	0x2
	.long	.LASF175
	.long	0x11d2
	.long	0x11fd
	.long	0x1203
	.uleb128 0x3
	.long	0x4773
	.byte	0
	.uleb128 0x18
	.long	.LASF176
	.byte	0x3
	.value	0x21f
	.byte	0x2
	.long	.LASF177
	.long	0x1123
	.long	0x121c
	.long	0x1222
	.uleb128 0x3
	.long	0x4773
	.byte	0
	.uleb128 0x18
	.long	.LASF178
	.byte	0x3
	.value	0x223
	.byte	0x2
	.long	.LASF179
	.long	0x1123
	.long	0x123b
	.long	0x1241
	.uleb128 0x3
	.long	0x4773
	.byte	0
	.uleb128 0x18
	.long	.LASF180
	.byte	0x3
	.value	0x227
	.byte	0x2
	.long	.LASF181
	.long	0x476e
	.long	0x125a
	.long	0x1260
	.uleb128 0x3
	.long	0x475f
	.byte	0
	.uleb128 0x18
	.long	.LASF180
	.byte	0x3
	.value	0x22e
	.byte	0x2
	.long	.LASF182
	.long	0x1123
	.long	0x1279
	.long	0x1284
	.uleb128 0x3
	.long	0x475f
	.uleb128 0x1
	.long	0x113
	.byte	0
	.uleb128 0x18
	.long	.LASF183
	.byte	0x3
	.value	0x232
	.byte	0x2
	.long	.LASF184
	.long	0x476e
	.long	0x129d
	.long	0x12a3
	.uleb128 0x3
	.long	0x475f
	.byte	0
	.uleb128 0x18
	.long	.LASF183
	.byte	0x3
	.value	0x239
	.byte	0x2
	.long	.LASF185
	.long	0x1123
	.long	0x12bc
	.long	0x12c7
	.uleb128 0x3
	.long	0x475f
	.uleb128 0x1
	.long	0x113
	.byte	0
	.uleb128 0x18
	.long	.LASF186
	.byte	0x3
	.value	0x23d
	.byte	0x2
	.long	.LASF187
	.long	0x476e
	.long	0x12e0
	.long	0x12eb
	.uleb128 0x3
	.long	0x475f
	.uleb128 0x1
	.long	0x4769
	.byte	0
	.uleb128 0x18
	.long	.LASF188
	.byte	0x3
	.value	0x244
	.byte	0x2
	.long	.LASF189
	.long	0x476e
	.long	0x1304
	.long	0x130f
	.uleb128 0x3
	.long	0x475f
	.uleb128 0x1
	.long	0x4769
	.byte	0
	.uleb128 0x18
	.long	.LASF190
	.byte	0x3
	.value	0x24b
	.byte	0x2
	.long	.LASF191
	.long	0x476e
	.long	0x1328
	.long	0x1333
	.uleb128 0x3
	.long	0x475f
	.uleb128 0x1
	.long	0x477d
	.byte	0
	.uleb128 0x18
	.long	.LASF192
	.byte	0x3
	.value	0x252
	.byte	0x2
	.long	.LASF193
	.long	0x476e
	.long	0x134c
	.long	0x1357
	.uleb128 0x3
	.long	0x475f
	.uleb128 0x1
	.long	0x477d
	.byte	0
	.uleb128 0x5b
	.long	.LASF194
	.byte	0x3
	.value	0x26f
	.byte	0x2
	.long	.LASF320
	.long	0x1123
	.uleb128 0x2f
	.string	"min"
	.byte	0x3
	.value	0x273
	.byte	0x2
	.long	.LASF196
	.long	0x1123
	.uleb128 0x2f
	.string	"max"
	.byte	0x3
	.value	0x277
	.byte	0x2
	.long	.LASF197
	.long	0x1123
	.uleb128 0x5c
	.string	"__r"
	.value	0x27b
	.byte	0x6
	.long	0x11d2
	.uleb128 0x5d
	.long	.LASF198
	.value	0x209
	.byte	0x17
	.long	.LASF199
	.long	0x13b3
	.long	0x13be
	.uleb128 0x4
	.long	.LASF200
	.long	0x32f1
	.uleb128 0x3
	.long	0x475f
	.uleb128 0x1
	.long	0x4782
	.byte	0
	.uleb128 0x4
	.long	.LASF201
	.long	0x32f1
	.uleb128 0x4
	.long	.LASF202
	.long	0x10cd
	.byte	0
	.uleb128 0x9
	.long	0x1123
	.uleb128 0x80
	.string	"_V2"
	.byte	0x3
	.value	0x45d
	.byte	0x16
	.long	0x145a
	.uleb128 0x81
	.long	.LASF204
	.byte	0x1
	.byte	0x3
	.value	0x465
	.byte	0xc
	.uleb128 0x82
	.long	.LASF205
	.byte	0x3
	.value	0x470
	.byte	0x1d
	.long	.LASF887
	.long	0x38ea
	.byte	0
	.byte	0x1
	.uleb128 0x19
	.long	.LASF206
	.byte	0x3
	.value	0x46a
	.byte	0x3b
	.long	0x145a
	.uleb128 0x9
	.long	0x1403
	.uleb128 0x2f
	.string	"now"
	.byte	0x3
	.value	0x473
	.byte	0x7
	.long	.LASF207
	.long	0x1403
	.uleb128 0xc
	.long	.LASF208
	.byte	0x3
	.value	0x477
	.byte	0x7
	.long	.LASF209
	.long	0x3d57
	.long	0x1441
	.uleb128 0x1
	.long	0x4787
	.byte	0
	.uleb128 0x4d
	.long	.LASF210
	.byte	0x3
	.value	0x47e
	.byte	0x7
	.long	.LASF212
	.long	0x1403
	.uleb128 0x1
	.long	0x3d57
	.byte	0
	.byte	0
	.byte	0
	.uleb128 0x28
	.long	.LASF213
	.byte	0x8
	.byte	0x3
	.value	0x368
	.byte	0xe
	.long	0x155c
	.uleb128 0x1f
	.long	.LASF206
	.byte	0x3
	.value	0x372
	.byte	0xc
	.long	.LASF214
	.long	0x147d
	.long	0x1483
	.uleb128 0x3
	.long	0x478c
	.byte	0
	.uleb128 0x5d
	.long	.LASF206
	.value	0x375
	.byte	0x15
	.long	.LASF215
	.long	0x1497
	.long	0x14a2
	.uleb128 0x3
	.long	0x478c
	.uleb128 0x1
	.long	0x4791
	.byte	0
	.uleb128 0x19
	.long	.LASF167
	.byte	0x3
	.value	0x36e
	.byte	0x14
	.long	0x1123
	.uleb128 0x9
	.long	0x14a2
	.uleb128 0x18
	.long	.LASF216
	.byte	0x3
	.value	0x382
	.byte	0x2
	.long	.LASF217
	.long	0x14a2
	.long	0x14cd
	.long	0x14d3
	.uleb128 0x3
	.long	0x4796
	.byte	0
	.uleb128 0x18
	.long	.LASF186
	.byte	0x3
	.value	0x39f
	.byte	0x2
	.long	.LASF218
	.long	0x47a0
	.long	0x14ec
	.long	0x14f7
	.uleb128 0x3
	.long	0x478c
	.uleb128 0x1
	.long	0x4791
	.byte	0
	.uleb128 0x18
	.long	.LASF188
	.byte	0x3
	.value	0x3a6
	.byte	0x2
	.long	.LASF219
	.long	0x47a0
	.long	0x1510
	.long	0x151b
	.uleb128 0x3
	.long	0x478c
	.uleb128 0x1
	.long	0x4791
	.byte	0
	.uleb128 0x2f
	.string	"min"
	.byte	0x3
	.value	0x3ae
	.byte	0x2
	.long	.LASF220
	.long	0x145a
	.uleb128 0x2f
	.string	"max"
	.byte	0x3
	.value	0x3b2
	.byte	0x2
	.long	.LASF221
	.long	0x145a
	.uleb128 0x5c
	.string	"__d"
	.value	0x3b6
	.byte	0xb
	.long	0x14a2
	.uleb128 0x4
	.long	.LASF222
	.long	0x13e4
	.uleb128 0x4
	.long	.LASF223
	.long	0x1123
	.byte	0
	.uleb128 0x9
	.long	0x145a
	.uleb128 0x83
	.byte	0x3
	.value	0xce9
	.byte	0x1f
	.long	0x170a
	.uleb128 0x16
	.long	.LASF224
	.byte	0x1
	.byte	0x3
	.byte	0xcf
	.byte	0xe
	.long	0x15d2
	.uleb128 0x1a
	.long	.LASF225
	.byte	0x3
	.byte	0xd3
	.byte	0x4
	.long	.LASF226
	.long	0x1123
	.long	0x15a4
	.uleb128 0x4
	.long	.LASF201
	.long	0x32f1
	.uleb128 0x4
	.long	.LASF202
	.long	0x10cd
	.uleb128 0x1
	.long	0x4769
	.byte	0
	.uleb128 0x4
	.long	.LASF227
	.long	0x1123
	.uleb128 0xd
	.string	"_CF"
	.long	0x16bb
	.uleb128 0xd
	.string	"_CR"
	.long	0x32f1
	.uleb128 0x30
	.long	.LASF228
	.long	0x38e3
	.uleb128 0x30
	.long	.LASF229
	.long	0x38e3
	.byte	0
	.uleb128 0xc
	.long	.LASF230
	.byte	0x3
	.value	0x294
	.byte	0x7
	.long	.LASF231
	.long	0x169d
	.long	0x1616
	.uleb128 0x4
	.long	.LASF232
	.long	0x32f1
	.uleb128 0x4
	.long	.LASF233
	.long	0x10cd
	.uleb128 0x4
	.long	.LASF200
	.long	0x32f1
	.uleb128 0x4
	.long	.LASF234
	.long	0x10cd
	.uleb128 0x1
	.long	0x4769
	.uleb128 0x1
	.long	0x4769
	.byte	0
	.uleb128 0xc
	.long	.LASF235
	.byte	0x3
	.value	0x412
	.byte	0x7
	.long	.LASF236
	.long	0x169d
	.long	0x1651
	.uleb128 0x4
	.long	.LASF222
	.long	0x13e4
	.uleb128 0x4
	.long	.LASF237
	.long	0x1123
	.uleb128 0x4
	.long	.LASF238
	.long	0x1123
	.uleb128 0x1
	.long	0x59c0
	.uleb128 0x1
	.long	0x59c0
	.byte	0
	.uleb128 0x5
	.long	.LASF239
	.byte	0x3
	.byte	0xff
	.byte	0xd
	.long	0x297d
	.uleb128 0x4d
	.long	.LASF240
	.byte	0x3
	.value	0x10b
	.byte	0x7
	.long	.LASF241
	.long	0x1651
	.uleb128 0x4
	.long	.LASF227
	.long	0x1123
	.uleb128 0x4
	.long	.LASF201
	.long	0x32f1
	.uleb128 0x4
	.long	.LASF202
	.long	0x10cd
	.uleb128 0x1
	.long	0x4769
	.byte	0
	.byte	0
	.uleb128 0x16
	.long	.LASF242
	.byte	0x1
	.byte	0x3
	.byte	0x7f
	.byte	0xc
	.long	0x16bb
	.uleb128 0x5
	.long	.LASF243
	.byte	0x3
	.byte	0x82
	.byte	0xd
	.long	0x1123
	.uleb128 0x84
	.string	"_Tp"
	.uleb128 0x5e
	.long	0x1123
	.uleb128 0x5e
	.long	0x1123
	.byte	0
	.byte	0
	.uleb128 0x28
	.long	.LASF244
	.byte	0x1
	.byte	0x29
	.value	0x10a
	.byte	0xc
	.long	0x16fc
	.uleb128 0x4b
	.string	"num"
	.value	0x111
	.long	.LASF245
	.long	0x3bd4
	.uleb128 0x4b
	.string	"den"
	.value	0x114
	.long	.LASF246
	.long	0x3bd4
	.uleb128 0x30
	.long	.LASF162
	.long	0x32f1
	.uleb128 0x85
	.long	.LASF163
	.long	0x32f1
	.byte	0x1
	.byte	0
	.uleb128 0x86
	.long	.LASF247
	.byte	0x41
	.value	0x2f9
	.byte	0x14
	.long	0x1714
	.uleb128 0x59
	.long	.LASF248
	.byte	0x3
	.value	0xc83
	.byte	0x14
	.byte	0
	.uleb128 0x3f
	.long	.LASF249
	.byte	0x3
	.byte	0x36
	.byte	0xd
	.uleb128 0x27
	.long	.LASF250
	.byte	0x1
	.byte	0x5
	.byte	0x7c
	.byte	0xb
	.long	0x17ac
	.uleb128 0x5f
	.long	0x35d5
	.byte	0x1
	.uleb128 0x1d
	.long	.LASF251
	.byte	0x5
	.byte	0x9c
	.byte	0x7
	.long	.LASF252
	.long	0x1743
	.long	0x1749
	.uleb128 0x3
	.long	0x47cd
	.byte	0
	.uleb128 0x1d
	.long	.LASF251
	.byte	0x5
	.byte	0x9f
	.byte	0x7
	.long	.LASF253
	.long	0x175d
	.long	0x1768
	.uleb128 0x3
	.long	0x47cd
	.uleb128 0x1
	.long	0x47d7
	.byte	0
	.uleb128 0x87
	.long	.LASF82
	.byte	0x5
	.byte	0xa4
	.byte	0x12
	.long	.LASF256
	.long	0x47dc
	.byte	0x1
	.byte	0x1
	.long	0x1783
	.long	0x178e
	.uleb128 0x3
	.long	0x47cd
	.uleb128 0x1
	.long	0x47d7
	.byte	0
	.uleb128 0x88
	.long	.LASF257
	.byte	0x5
	.byte	0xae
	.byte	0x7
	.long	.LASF258
	.byte	0x1
	.long	0x17a0
	.uleb128 0x3
	.long	0x47cd
	.uleb128 0x3
	.long	0x113
	.byte	0
	.byte	0
	.uleb128 0x9
	.long	0x171c
	.uleb128 0x28
	.long	.LASF259
	.byte	0x1
	.byte	0x8
	.value	0x19b
	.byte	0xc
	.long	0x18af
	.uleb128 0x19
	.long	.LASF260
	.byte	0x8
	.value	0x1a4
	.byte	0xd
	.long	0x47b4
	.uleb128 0xc
	.long	.LASF261
	.byte	0x8
	.value	0x1cf
	.byte	0x7
	.long	.LASF262
	.long	0x17bf
	.long	0x17ec
	.uleb128 0x1
	.long	0x47e1
	.uleb128 0x1
	.long	0x17fe
	.byte	0
	.uleb128 0x19
	.long	.LASF263
	.byte	0x8
	.value	0x19e
	.byte	0xd
	.long	0x171c
	.uleb128 0x9
	.long	0x17ec
	.uleb128 0x19
	.long	.LASF264
	.byte	0x8
	.value	0x1b3
	.byte	0xd
	.long	0x641
	.uleb128 0xc
	.long	.LASF261
	.byte	0x8
	.value	0x1dd
	.byte	0x7
	.long	.LASF265
	.long	0x17bf
	.long	0x1830
	.uleb128 0x1
	.long	0x47e1
	.uleb128 0x1
	.long	0x17fe
	.uleb128 0x1
	.long	0x1830
	.byte	0
	.uleb128 0x19
	.long	.LASF266
	.byte	0x8
	.value	0x1ad
	.byte	0xd
	.long	0x3d9c
	.uleb128 0x37
	.long	.LASF267
	.byte	0x8
	.value	0x1ef
	.byte	0x7
	.long	.LASF268
	.long	0x185e
	.uleb128 0x1
	.long	0x47e1
	.uleb128 0x1
	.long	0x17bf
	.uleb128 0x1
	.long	0x17fe
	.byte	0
	.uleb128 0xc
	.long	.LASF269
	.byte	0x8
	.value	0x223
	.byte	0x7
	.long	.LASF270
	.long	0x17fe
	.long	0x1879
	.uleb128 0x1
	.long	0x47e6
	.byte	0
	.uleb128 0xc
	.long	.LASF271
	.byte	0x8
	.value	0x232
	.byte	0x7
	.long	.LASF272
	.long	0x17ec
	.long	0x1894
	.uleb128 0x1
	.long	0x47e6
	.byte	0
	.uleb128 0x19
	.long	.LASF56
	.byte	0x8
	.value	0x1a1
	.byte	0xd
	.long	0x113
	.uleb128 0x19
	.long	.LASF273
	.byte	0x8
	.value	0x1c2
	.byte	0x8
	.long	0x171c
	.byte	0
	.uleb128 0x16
	.long	.LASF274
	.byte	0x18
	.byte	0x6
	.byte	0x54
	.byte	0xc
	.long	0x1c78
	.uleb128 0x16
	.long	.LASF275
	.byte	0x18
	.byte	0x6
	.byte	0x5b
	.byte	0xe
	.long	0x1965
	.uleb128 0x6
	.long	.LASF276
	.byte	0x6
	.byte	0x5d
	.byte	0xa
	.long	0x196a
	.byte	0
	.uleb128 0x6
	.long	.LASF277
	.byte	0x6
	.byte	0x5e
	.byte	0xa
	.long	0x196a
	.byte	0x8
	.uleb128 0x6
	.long	.LASF278
	.byte	0x6
	.byte	0x5f
	.byte	0xa
	.long	0x196a
	.byte	0x10
	.uleb128 0x22
	.long	.LASF275
	.byte	0x6
	.byte	0x61
	.byte	0x2
	.long	.LASF279
	.long	0x1904
	.long	0x190a
	.uleb128 0x3
	.long	0x47f5
	.byte	0
	.uleb128 0x22
	.long	.LASF275
	.byte	0x6
	.byte	0x66
	.byte	0x2
	.long	.LASF280
	.long	0x191e
	.long	0x1929
	.uleb128 0x3
	.long	0x47f5
	.uleb128 0x1
	.long	0x47ff
	.byte	0
	.uleb128 0x22
	.long	.LASF281
	.byte	0x6
	.byte	0x6d
	.byte	0x2
	.long	.LASF282
	.long	0x193d
	.long	0x1948
	.uleb128 0x3
	.long	0x47f5
	.uleb128 0x1
	.long	0x4804
	.byte	0
	.uleb128 0x89
	.long	.LASF283
	.byte	0x6
	.byte	0x75
	.byte	0x2
	.long	.LASF481
	.long	0x1959
	.uleb128 0x3
	.long	0x47f5
	.uleb128 0x1
	.long	0x4809
	.byte	0
	.byte	0
	.uleb128 0x9
	.long	0x18bc
	.uleb128 0x5
	.long	.LASF260
	.byte	0x6
	.byte	0x59
	.byte	0x9
	.long	0x3815
	.uleb128 0x16
	.long	.LASF284
	.byte	0x18
	.byte	0x6
	.byte	0x80
	.byte	0xe
	.long	0x1a42
	.uleb128 0x2e
	.long	0x171c
	.uleb128 0x2e
	.long	0x18bc
	.uleb128 0x22
	.long	.LASF284
	.byte	0x6
	.byte	0x83
	.byte	0x2
	.long	.LASF285
	.long	0x19a1
	.long	0x19a7
	.uleb128 0x3
	.long	0x480e
	.byte	0
	.uleb128 0x22
	.long	.LASF284
	.byte	0x6
	.byte	0x88
	.byte	0x2
	.long	.LASF286
	.long	0x19bb
	.long	0x19c6
	.uleb128 0x3
	.long	0x480e
	.uleb128 0x1
	.long	0x4818
	.byte	0
	.uleb128 0x22
	.long	.LASF284
	.byte	0x6
	.byte	0x8f
	.byte	0x2
	.long	.LASF287
	.long	0x19da
	.long	0x19e5
	.uleb128 0x3
	.long	0x480e
	.uleb128 0x1
	.long	0x481d
	.byte	0
	.uleb128 0x22
	.long	.LASF284
	.byte	0x6
	.byte	0x93
	.byte	0x2
	.long	.LASF288
	.long	0x19f9
	.long	0x1a04
	.uleb128 0x3
	.long	0x480e
	.uleb128 0x1
	.long	0x4822
	.byte	0
	.uleb128 0x22
	.long	.LASF284
	.byte	0x6
	.byte	0x97
	.byte	0x2
	.long	.LASF289
	.long	0x1a18
	.long	0x1a28
	.uleb128 0x3
	.long	0x480e
	.uleb128 0x1
	.long	0x4822
	.uleb128 0x1
	.long	0x481d
	.byte	0
	.uleb128 0x8a
	.long	.LASF888
	.long	.LASF889
	.long	0x1a36
	.uleb128 0x3
	.long	0x480e
	.uleb128 0x3
	.long	0x113
	.byte	0
	.byte	0
	.uleb128 0x5
	.long	.LASF290
	.byte	0x6
	.byte	0x57
	.byte	0x15
	.long	0x3846
	.uleb128 0x9
	.long	0x1a42
	.uleb128 0x18
	.long	.LASF291
	.byte	0x6
	.value	0x114
	.byte	0x7
	.long	.LASF292
	.long	0x4827
	.long	0x1a6c
	.long	0x1a72
	.uleb128 0x3
	.long	0x482c
	.byte	0
	.uleb128 0x18
	.long	.LASF291
	.byte	0x6
	.value	0x118
	.byte	0x7
	.long	.LASF293
	.long	0x4818
	.long	0x1a8b
	.long	0x1a91
	.uleb128 0x3
	.long	0x4836
	.byte	0
	.uleb128 0x19
	.long	.LASF263
	.byte	0x6
	.value	0x111
	.byte	0x16
	.long	0x171c
	.uleb128 0x9
	.long	0x1a91
	.uleb128 0x18
	.long	.LASF294
	.byte	0x6
	.value	0x11c
	.byte	0x7
	.long	.LASF295
	.long	0x1a91
	.long	0x1abc
	.long	0x1ac2
	.uleb128 0x3
	.long	0x4836
	.byte	0
	.uleb128 0x38
	.long	.LASF296
	.byte	0x6
	.value	0x120
	.byte	0x7
	.long	.LASF297
	.long	0x1ad7
	.long	0x1add
	.uleb128 0x3
	.long	0x482c
	.byte	0
	.uleb128 0x1f
	.long	.LASF296
	.byte	0x6
	.value	0x125
	.byte	0x7
	.long	.LASF298
	.long	0x1af2
	.long	0x1afd
	.uleb128 0x3
	.long	0x482c
	.uleb128 0x1
	.long	0x483b
	.byte	0
	.uleb128 0x1f
	.long	.LASF296
	.byte	0x6
	.value	0x12a
	.byte	0x7
	.long	.LASF299
	.long	0x1b12
	.long	0x1b1d
	.uleb128 0x3
	.long	0x482c
	.uleb128 0x1
	.long	0x641
	.byte	0
	.uleb128 0x1f
	.long	.LASF296
	.byte	0x6
	.value	0x12f
	.byte	0x7
	.long	.LASF300
	.long	0x1b32
	.long	0x1b42
	.uleb128 0x3
	.long	0x482c
	.uleb128 0x1
	.long	0x641
	.uleb128 0x1
	.long	0x483b
	.byte	0
	.uleb128 0x38
	.long	.LASF296
	.byte	0x6
	.value	0x134
	.byte	0x7
	.long	.LASF301
	.long	0x1b57
	.long	0x1b62
	.uleb128 0x3
	.long	0x482c
	.uleb128 0x1
	.long	0x4840
	.byte	0
	.uleb128 0x1f
	.long	.LASF296
	.byte	0x6
	.value	0x138
	.byte	0x7
	.long	.LASF302
	.long	0x1b77
	.long	0x1b82
	.uleb128 0x3
	.long	0x482c
	.uleb128 0x1
	.long	0x4822
	.byte	0
	.uleb128 0x1f
	.long	.LASF296
	.byte	0x6
	.value	0x13b
	.byte	0x7
	.long	.LASF303
	.long	0x1b97
	.long	0x1ba7
	.uleb128 0x3
	.long	0x482c
	.uleb128 0x1
	.long	0x4840
	.uleb128 0x1
	.long	0x483b
	.byte	0
	.uleb128 0x1f
	.long	.LASF296
	.byte	0x6
	.value	0x148
	.byte	0x7
	.long	.LASF304
	.long	0x1bbc
	.long	0x1bcc
	.uleb128 0x3
	.long	0x482c
	.uleb128 0x1
	.long	0x483b
	.uleb128 0x1
	.long	0x4840
	.byte	0
	.uleb128 0x1f
	.long	.LASF305
	.byte	0x6
	.value	0x14d
	.byte	0x7
	.long	.LASF306
	.long	0x1be1
	.long	0x1bec
	.uleb128 0x3
	.long	0x482c
	.uleb128 0x3
	.long	0x113
	.byte	0
	.uleb128 0x8b
	.long	.LASF307
	.byte	0x6
	.value	0x154
	.byte	0x14
	.long	0x1976
	.byte	0
	.uleb128 0x18
	.long	.LASF308
	.byte	0x6
	.value	0x157
	.byte	0x7
	.long	.LASF309
	.long	0x196a
	.long	0x1c14
	.long	0x1c1f
	.uleb128 0x3
	.long	0x482c
	.uleb128 0x1
	.long	0x641
	.byte	0
	.uleb128 0x1f
	.long	.LASF310
	.byte	0x6
	.value	0x15e
	.byte	0x7
	.long	.LASF311
	.long	0x1c34
	.long	0x1c44
	.uleb128 0x3
	.long	0x482c
	.uleb128 0x1
	.long	0x196a
	.uleb128 0x1
	.long	0x641
	.byte	0
	.uleb128 0x11
	.long	.LASF312
	.byte	0x6
	.value	0x167
	.byte	0x7
	.long	.LASF313
	.byte	0x2
	.long	0x1c5a
	.long	0x1c65
	.uleb128 0x3
	.long	0x482c
	.uleb128 0x1
	.long	0x641
	.byte	0
	.uleb128 0xd
	.string	"_Tp"
	.long	0x113
	.uleb128 0x4
	.long	.LASF314
	.long	0x171c
	.byte	0
	.uleb128 0x9
	.long	0x18af
	.uleb128 0x8c
	.long	.LASF315
	.byte	0x18
	.byte	0x6
	.value	0x185
	.byte	0xb
	.long	0x286b
	.uleb128 0x17
	.byte	0x6
	.value	0x185
	.byte	0xb
	.long	0x1bfb
	.uleb128 0x17
	.byte	0x6
	.value	0x185
	.byte	0xb
	.long	0x1c1f
	.uleb128 0x17
	.byte	0x6
	.value	0x185
	.byte	0xb
	.long	0x1bec
	.uleb128 0x17
	.byte	0x6
	.value	0x185
	.byte	0xb
	.long	0x1a72
	.uleb128 0x17
	.byte	0x6
	.value	0x185
	.byte	0xb
	.long	0x1a53
	.uleb128 0x17
	.byte	0x6
	.value	0x185
	.byte	0xb
	.long	0x1aa3
	.uleb128 0x5f
	.long	0x18af
	.byte	0x2
	.uleb128 0xc
	.long	.LASF316
	.byte	0x6
	.value	0x1af
	.byte	0x7
	.long	.LASF317
	.long	0x38e3
	.long	0x1ce3
	.uleb128 0x1
	.long	0xb9f
	.byte	0
	.uleb128 0xc
	.long	.LASF316
	.byte	0x6
	.value	0x1b8
	.byte	0x7
	.long	.LASF318
	.long	0x38e3
	.long	0x1cfe
	.uleb128 0x1
	.long	0x635
	.byte	0
	.uleb128 0x5b
	.long	.LASF319
	.byte	0x6
	.value	0x1bc
	.byte	0x7
	.long	.LASF321
	.long	0x38e3
	.uleb128 0x24
	.long	.LASF260
	.value	0x19f
	.byte	0x29
	.long	0x196a
	.uleb128 0xc
	.long	.LASF322
	.byte	0x6
	.value	0x1c5
	.byte	0x7
	.long	.LASF323
	.long	0x1d0f
	.long	0x1d4a
	.uleb128 0x1
	.long	0x1d0f
	.uleb128 0x1
	.long	0x1d0f
	.uleb128 0x1
	.long	0x1d0f
	.uleb128 0x1
	.long	0x4845
	.uleb128 0x1
	.long	0xb9f
	.byte	0
	.uleb128 0x19
	.long	.LASF290
	.byte	0x6
	.value	0x19a
	.byte	0x2f
	.long	0x1a42
	.uleb128 0x9
	.long	0x1d4a
	.uleb128 0xc
	.long	.LASF322
	.byte	0x6
	.value	0x1cc
	.byte	0x7
	.long	.LASF324
	.long	0x1d0f
	.long	0x1d8b
	.uleb128 0x1
	.long	0x1d0f
	.uleb128 0x1
	.long	0x1d0f
	.uleb128 0x1
	.long	0x1d0f
	.uleb128 0x1
	.long	0x4845
	.uleb128 0x1
	.long	0x635
	.byte	0
	.uleb128 0xc
	.long	.LASF325
	.byte	0x6
	.value	0x1d1
	.byte	0x7
	.long	.LASF326
	.long	0x1d0f
	.long	0x1db5
	.uleb128 0x1
	.long	0x1d0f
	.uleb128 0x1
	.long	0x1d0f
	.uleb128 0x1
	.long	0x1d0f
	.uleb128 0x1
	.long	0x4845
	.byte	0
	.uleb128 0x49
	.long	.LASF327
	.byte	0x6
	.value	0x1e7
	.long	.LASF328
	.long	0x1dc9
	.long	0x1dcf
	.uleb128 0x3
	.long	0x484a
	.byte	0
	.uleb128 0x60
	.long	.LASF327
	.value	0x1f1
	.long	.LASF329
	.long	0x1de2
	.long	0x1ded
	.uleb128 0x3
	.long	0x484a
	.uleb128 0x1
	.long	0x4854
	.byte	0
	.uleb128 0x24
	.long	.LASF263
	.value	0x1aa
	.byte	0x1a
	.long	0x171c
	.uleb128 0x9
	.long	0x1ded
	.uleb128 0x60
	.long	.LASF327
	.value	0x1fe
	.long	.LASF330
	.long	0x1e11
	.long	0x1e21
	.uleb128 0x3
	.long	0x484a
	.uleb128 0x1
	.long	0x1e21
	.uleb128 0x1
	.long	0x4854
	.byte	0
	.uleb128 0x24
	.long	.LASF264
	.value	0x1a8
	.byte	0x1a
	.long	0x641
	.uleb128 0x11
	.long	.LASF327
	.byte	0x6
	.value	0x20a
	.byte	0x7
	.long	.LASF331
	.byte	0x1
	.long	0x1e43
	.long	0x1e58
	.uleb128 0x3
	.long	0x484a
	.uleb128 0x1
	.long	0x1e21
	.uleb128 0x1
	.long	0x4859
	.uleb128 0x1
	.long	0x4854
	.byte	0
	.uleb128 0x24
	.long	.LASF56
	.value	0x19e
	.byte	0x17
	.long	0x113
	.uleb128 0x9
	.long	0x1e58
	.uleb128 0x11
	.long	.LASF327
	.byte	0x6
	.value	0x229
	.byte	0x7
	.long	.LASF332
	.byte	0x1
	.long	0x1e7f
	.long	0x1e8a
	.uleb128 0x3
	.long	0x484a
	.uleb128 0x1
	.long	0x485e
	.byte	0
	.uleb128 0x49
	.long	.LASF327
	.byte	0x6
	.value	0x23c
	.long	.LASF333
	.long	0x1e9e
	.long	0x1ea9
	.uleb128 0x3
	.long	0x484a
	.uleb128 0x1
	.long	0x4863
	.byte	0
	.uleb128 0x11
	.long	.LASF327
	.byte	0x6
	.value	0x23f
	.byte	0x7
	.long	.LASF334
	.byte	0x1
	.long	0x1ebf
	.long	0x1ecf
	.uleb128 0x3
	.long	0x484a
	.uleb128 0x1
	.long	0x485e
	.uleb128 0x1
	.long	0x4854
	.byte	0
	.uleb128 0x1f
	.long	.LASF327
	.byte	0x6
	.value	0x249
	.byte	0x7
	.long	.LASF335
	.long	0x1ee4
	.long	0x1ef9
	.uleb128 0x3
	.long	0x484a
	.uleb128 0x1
	.long	0x4863
	.uleb128 0x1
	.long	0x4854
	.uleb128 0x1
	.long	0xb9f
	.byte	0
	.uleb128 0x1f
	.long	.LASF327
	.byte	0x6
	.value	0x24d
	.byte	0x7
	.long	.LASF336
	.long	0x1f0e
	.long	0x1f23
	.uleb128 0x3
	.long	0x484a
	.uleb128 0x1
	.long	0x4863
	.uleb128 0x1
	.long	0x4854
	.uleb128 0x1
	.long	0x635
	.byte	0
	.uleb128 0x11
	.long	.LASF327
	.byte	0x6
	.value	0x25f
	.byte	0x7
	.long	.LASF337
	.byte	0x1
	.long	0x1f39
	.long	0x1f49
	.uleb128 0x3
	.long	0x484a
	.uleb128 0x1
	.long	0x4863
	.uleb128 0x1
	.long	0x4854
	.byte	0
	.uleb128 0x11
	.long	.LASF327
	.byte	0x6
	.value	0x271
	.byte	0x7
	.long	.LASF338
	.byte	0x1
	.long	0x1f5f
	.long	0x1f6f
	.uleb128 0x3
	.long	0x484a
	.uleb128 0x1
	.long	0x2870
	.uleb128 0x1
	.long	0x4854
	.byte	0
	.uleb128 0x11
	.long	.LASF339
	.byte	0x6
	.value	0x2a6
	.byte	0x7
	.long	.LASF340
	.byte	0x1
	.long	0x1f85
	.long	0x1f90
	.uleb128 0x3
	.long	0x484a
	.uleb128 0x3
	.long	0x113
	.byte	0
	.uleb128 0x1b
	.long	.LASF82
	.byte	0x2a
	.byte	0xc6
	.byte	0x5
	.long	.LASF341
	.long	0x4868
	.byte	0x1
	.long	0x1fa9
	.long	0x1fb4
	.uleb128 0x3
	.long	0x484a
	.uleb128 0x1
	.long	0x485e
	.byte	0
	.uleb128 0xe
	.long	.LASF82
	.byte	0x6
	.value	0x2c5
	.byte	0x7
	.long	.LASF342
	.long	0x4868
	.byte	0x1
	.long	0x1fce
	.long	0x1fd9
	.uleb128 0x3
	.long	0x484a
	.uleb128 0x1
	.long	0x4863
	.byte	0
	.uleb128 0xe
	.long	.LASF82
	.byte	0x6
	.value	0x2da
	.byte	0x7
	.long	.LASF343
	.long	0x4868
	.byte	0x1
	.long	0x1ff3
	.long	0x1ffe
	.uleb128 0x3
	.long	0x484a
	.uleb128 0x1
	.long	0x2870
	.byte	0
	.uleb128 0x11
	.long	.LASF112
	.byte	0x6
	.value	0x2ed
	.byte	0x7
	.long	.LASF344
	.byte	0x1
	.long	0x2014
	.long	0x2024
	.uleb128 0x3
	.long	0x484a
	.uleb128 0x1
	.long	0x1e21
	.uleb128 0x1
	.long	0x4859
	.byte	0
	.uleb128 0x11
	.long	.LASF112
	.byte	0x6
	.value	0x31a
	.byte	0x7
	.long	.LASF345
	.byte	0x1
	.long	0x203a
	.long	0x2045
	.uleb128 0x3
	.long	0x484a
	.uleb128 0x1
	.long	0x2870
	.byte	0
	.uleb128 0x24
	.long	.LASF346
	.value	0x1a3
	.byte	0x3d
	.long	0x3866
	.uleb128 0xe
	.long	.LASF347
	.byte	0x6
	.value	0x32b
	.byte	0x7
	.long	.LASF348
	.long	0x2045
	.byte	0x1
	.long	0x206b
	.long	0x2071
	.uleb128 0x3
	.long	0x484a
	.byte	0
	.uleb128 0x24
	.long	.LASF349
	.value	0x1a5
	.byte	0x7
	.long	0x386b
	.uleb128 0xe
	.long	.LASF347
	.byte	0x6
	.value	0x334
	.byte	0x7
	.long	.LASF350
	.long	0x2071
	.byte	0x1
	.long	0x2097
	.long	0x209d
	.uleb128 0x3
	.long	0x486d
	.byte	0
	.uleb128 0x40
	.string	"end"
	.value	0x33d
	.long	.LASF351
	.long	0x2045
	.long	0x20b4
	.long	0x20ba
	.uleb128 0x3
	.long	0x484a
	.byte	0
	.uleb128 0x40
	.string	"end"
	.value	0x346
	.long	.LASF352
	.long	0x2071
	.long	0x20d1
	.long	0x20d7
	.uleb128 0x3
	.long	0x486d
	.byte	0
	.uleb128 0x24
	.long	.LASF353
	.value	0x1a7
	.byte	0x30
	.long	0x2965
	.uleb128 0xe
	.long	.LASF354
	.byte	0x6
	.value	0x34f
	.byte	0x7
	.long	.LASF355
	.long	0x20d7
	.byte	0x1
	.long	0x20fd
	.long	0x2103
	.uleb128 0x3
	.long	0x484a
	.byte	0
	.uleb128 0x24
	.long	.LASF356
	.value	0x1a6
	.byte	0x35
	.long	0x296a
	.uleb128 0xe
	.long	.LASF354
	.byte	0x6
	.value	0x358
	.byte	0x7
	.long	.LASF357
	.long	0x2103
	.byte	0x1
	.long	0x2129
	.long	0x212f
	.uleb128 0x3
	.long	0x486d
	.byte	0
	.uleb128 0xe
	.long	.LASF358
	.byte	0x6
	.value	0x361
	.byte	0x7
	.long	.LASF359
	.long	0x20d7
	.byte	0x1
	.long	0x2149
	.long	0x214f
	.uleb128 0x3
	.long	0x484a
	.byte	0
	.uleb128 0xe
	.long	.LASF358
	.byte	0x6
	.value	0x36a
	.byte	0x7
	.long	.LASF360
	.long	0x2103
	.byte	0x1
	.long	0x2169
	.long	0x216f
	.uleb128 0x3
	.long	0x486d
	.byte	0
	.uleb128 0xe
	.long	.LASF361
	.byte	0x6
	.value	0x374
	.byte	0x7
	.long	.LASF362
	.long	0x2071
	.byte	0x1
	.long	0x2189
	.long	0x218f
	.uleb128 0x3
	.long	0x486d
	.byte	0
	.uleb128 0xe
	.long	.LASF363
	.byte	0x6
	.value	0x37d
	.byte	0x7
	.long	.LASF364
	.long	0x2071
	.byte	0x1
	.long	0x21a9
	.long	0x21af
	.uleb128 0x3
	.long	0x486d
	.byte	0
	.uleb128 0xe
	.long	.LASF365
	.byte	0x6
	.value	0x386
	.byte	0x7
	.long	.LASF366
	.long	0x2103
	.byte	0x1
	.long	0x21c9
	.long	0x21cf
	.uleb128 0x3
	.long	0x486d
	.byte	0
	.uleb128 0xe
	.long	.LASF367
	.byte	0x6
	.value	0x38f
	.byte	0x7
	.long	.LASF368
	.long	0x2103
	.byte	0x1
	.long	0x21e9
	.long	0x21ef
	.uleb128 0x3
	.long	0x486d
	.byte	0
	.uleb128 0xe
	.long	.LASF369
	.byte	0x6
	.value	0x396
	.byte	0x7
	.long	.LASF370
	.long	0x1e21
	.byte	0x1
	.long	0x2209
	.long	0x220f
	.uleb128 0x3
	.long	0x486d
	.byte	0
	.uleb128 0xe
	.long	.LASF269
	.byte	0x6
	.value	0x39b
	.byte	0x7
	.long	.LASF371
	.long	0x1e21
	.byte	0x1
	.long	0x2229
	.long	0x222f
	.uleb128 0x3
	.long	0x486d
	.byte	0
	.uleb128 0x11
	.long	.LASF372
	.byte	0x6
	.value	0x3a9
	.byte	0x7
	.long	.LASF373
	.byte	0x1
	.long	0x2245
	.long	0x2250
	.uleb128 0x3
	.long	0x484a
	.uleb128 0x1
	.long	0x1e21
	.byte	0
	.uleb128 0x11
	.long	.LASF372
	.byte	0x6
	.value	0x3bd
	.byte	0x7
	.long	.LASF374
	.byte	0x1
	.long	0x2266
	.long	0x2276
	.uleb128 0x3
	.long	0x484a
	.uleb128 0x1
	.long	0x1e21
	.uleb128 0x1
	.long	0x4859
	.byte	0
	.uleb128 0x11
	.long	.LASF375
	.byte	0x6
	.value	0x3dd
	.byte	0x7
	.long	.LASF376
	.byte	0x1
	.long	0x228c
	.long	0x2292
	.uleb128 0x3
	.long	0x484a
	.byte	0
	.uleb128 0xe
	.long	.LASF377
	.byte	0x6
	.value	0x3e6
	.byte	0x7
	.long	.LASF378
	.long	0x1e21
	.byte	0x1
	.long	0x22ac
	.long	0x22b2
	.uleb128 0x3
	.long	0x486d
	.byte	0
	.uleb128 0xe
	.long	.LASF379
	.byte	0x6
	.value	0x3ef
	.byte	0x7
	.long	.LASF380
	.long	0x38e3
	.byte	0x1
	.long	0x22cc
	.long	0x22d2
	.uleb128 0x3
	.long	0x486d
	.byte	0
	.uleb128 0x1d
	.long	.LASF381
	.byte	0x2a
	.byte	0x42
	.byte	0x5
	.long	.LASF382
	.long	0x22e6
	.long	0x22f1
	.uleb128 0x3
	.long	0x484a
	.uleb128 0x1
	.long	0x1e21
	.byte	0
	.uleb128 0x24
	.long	.LASF383
	.value	0x1a1
	.byte	0x32
	.long	0x3821
	.uleb128 0xe
	.long	.LASF384
	.byte	0x6
	.value	0x413
	.byte	0x7
	.long	.LASF385
	.long	0x22f1
	.byte	0x1
	.long	0x2317
	.long	0x2322
	.uleb128 0x3
	.long	0x484a
	.uleb128 0x1
	.long	0x1e21
	.byte	0
	.uleb128 0x24
	.long	.LASF386
	.value	0x1a2
	.byte	0x37
	.long	0x382d
	.uleb128 0xe
	.long	.LASF384
	.byte	0x6
	.value	0x425
	.byte	0x7
	.long	.LASF387
	.long	0x2322
	.byte	0x1
	.long	0x2348
	.long	0x2353
	.uleb128 0x3
	.long	0x486d
	.uleb128 0x1
	.long	0x1e21
	.byte	0
	.uleb128 0x11
	.long	.LASF388
	.byte	0x6
	.value	0x42e
	.byte	0x7
	.long	.LASF389
	.byte	0x2
	.long	0x2369
	.long	0x2374
	.uleb128 0x3
	.long	0x486d
	.uleb128 0x1
	.long	0x1e21
	.byte	0
	.uleb128 0x40
	.string	"at"
	.value	0x444
	.long	.LASF390
	.long	0x22f1
	.long	0x238a
	.long	0x2395
	.uleb128 0x3
	.long	0x484a
	.uleb128 0x1
	.long	0x1e21
	.byte	0
	.uleb128 0x40
	.string	"at"
	.value	0x456
	.long	.LASF391
	.long	0x2322
	.long	0x23ab
	.long	0x23b6
	.uleb128 0x3
	.long	0x486d
	.uleb128 0x1
	.long	0x1e21
	.byte	0
	.uleb128 0xe
	.long	.LASF392
	.byte	0x6
	.value	0x461
	.byte	0x7
	.long	.LASF393
	.long	0x22f1
	.byte	0x1
	.long	0x23d0
	.long	0x23d6
	.uleb128 0x3
	.long	0x484a
	.byte	0
	.uleb128 0xe
	.long	.LASF392
	.byte	0x6
	.value	0x46c
	.byte	0x7
	.long	.LASF394
	.long	0x2322
	.byte	0x1
	.long	0x23f0
	.long	0x23f6
	.uleb128 0x3
	.long	0x486d
	.byte	0
	.uleb128 0xe
	.long	.LASF395
	.byte	0x6
	.value	0x477
	.byte	0x7
	.long	.LASF396
	.long	0x22f1
	.byte	0x1
	.long	0x2410
	.long	0x2416
	.uleb128 0x3
	.long	0x484a
	.byte	0
	.uleb128 0xe
	.long	.LASF395
	.byte	0x6
	.value	0x482
	.byte	0x7
	.long	.LASF397
	.long	0x2322
	.byte	0x1
	.long	0x2430
	.long	0x2436
	.uleb128 0x3
	.long	0x486d
	.byte	0
	.uleb128 0xe
	.long	.LASF398
	.byte	0x6
	.value	0x490
	.byte	0x7
	.long	.LASF399
	.long	0x47b4
	.byte	0x1
	.long	0x2450
	.long	0x2456
	.uleb128 0x3
	.long	0x484a
	.byte	0
	.uleb128 0xe
	.long	.LASF398
	.byte	0x6
	.value	0x494
	.byte	0x7
	.long	.LASF400
	.long	0x2e2
	.byte	0x1
	.long	0x2470
	.long	0x2476
	.uleb128 0x3
	.long	0x486d
	.byte	0
	.uleb128 0x11
	.long	.LASF401
	.byte	0x6
	.value	0x4a3
	.byte	0x7
	.long	.LASF402
	.byte	0x1
	.long	0x248c
	.long	0x2497
	.uleb128 0x3
	.long	0x484a
	.uleb128 0x1
	.long	0x4859
	.byte	0
	.uleb128 0x11
	.long	.LASF401
	.byte	0x6
	.value	0x4b3
	.byte	0x7
	.long	.LASF403
	.byte	0x1
	.long	0x24ad
	.long	0x24b8
	.uleb128 0x3
	.long	0x484a
	.uleb128 0x1
	.long	0x4872
	.byte	0
	.uleb128 0x11
	.long	.LASF404
	.byte	0x6
	.value	0x4c9
	.byte	0x7
	.long	.LASF405
	.byte	0x1
	.long	0x24ce
	.long	0x24d4
	.uleb128 0x3
	.long	0x484a
	.byte	0
	.uleb128 0x1b
	.long	.LASF406
	.byte	0x2a
	.byte	0x82
	.byte	0x5
	.long	.LASF407
	.long	0x2045
	.byte	0x1
	.long	0x24ed
	.long	0x24fd
	.uleb128 0x3
	.long	0x484a
	.uleb128 0x1
	.long	0x2071
	.uleb128 0x1
	.long	0x4859
	.byte	0
	.uleb128 0xe
	.long	.LASF406
	.byte	0x6
	.value	0x50d
	.byte	0x7
	.long	.LASF408
	.long	0x2045
	.byte	0x1
	.long	0x2517
	.long	0x2527
	.uleb128 0x3
	.long	0x484a
	.uleb128 0x1
	.long	0x2071
	.uleb128 0x1
	.long	0x4872
	.byte	0
	.uleb128 0xe
	.long	.LASF406
	.byte	0x6
	.value	0x51e
	.byte	0x7
	.long	.LASF409
	.long	0x2045
	.byte	0x1
	.long	0x2541
	.long	0x2551
	.uleb128 0x3
	.long	0x484a
	.uleb128 0x1
	.long	0x2071
	.uleb128 0x1
	.long	0x2870
	.byte	0
	.uleb128 0xe
	.long	.LASF406
	.byte	0x6
	.value	0x537
	.byte	0x7
	.long	.LASF410
	.long	0x2045
	.byte	0x1
	.long	0x256b
	.long	0x2580
	.uleb128 0x3
	.long	0x484a
	.uleb128 0x1
	.long	0x2071
	.uleb128 0x1
	.long	0x1e21
	.uleb128 0x1
	.long	0x4859
	.byte	0
	.uleb128 0xe
	.long	.LASF411
	.byte	0x6
	.value	0x596
	.byte	0x7
	.long	.LASF412
	.long	0x2045
	.byte	0x1
	.long	0x259a
	.long	0x25a5
	.uleb128 0x3
	.long	0x484a
	.uleb128 0x1
	.long	0x2071
	.byte	0
	.uleb128 0xe
	.long	.LASF411
	.byte	0x6
	.value	0x5b1
	.byte	0x7
	.long	.LASF413
	.long	0x2045
	.byte	0x1
	.long	0x25bf
	.long	0x25cf
	.uleb128 0x3
	.long	0x484a
	.uleb128 0x1
	.long	0x2071
	.uleb128 0x1
	.long	0x2071
	.byte	0
	.uleb128 0x11
	.long	.LASF87
	.byte	0x6
	.value	0x5c8
	.byte	0x7
	.long	.LASF414
	.byte	0x1
	.long	0x25e5
	.long	0x25f0
	.uleb128 0x3
	.long	0x484a
	.uleb128 0x1
	.long	0x4868
	.byte	0
	.uleb128 0x11
	.long	.LASF415
	.byte	0x6
	.value	0x5da
	.byte	0x7
	.long	.LASF416
	.byte	0x1
	.long	0x2606
	.long	0x260c
	.uleb128 0x3
	.long	0x484a
	.byte	0
	.uleb128 0x11
	.long	.LASF417
	.byte	0x6
	.value	0x639
	.byte	0x7
	.long	.LASF418
	.byte	0x2
	.long	0x2622
	.long	0x2632
	.uleb128 0x3
	.long	0x484a
	.uleb128 0x1
	.long	0x1e21
	.uleb128 0x1
	.long	0x4859
	.byte	0
	.uleb128 0x11
	.long	.LASF419
	.byte	0x6
	.value	0x643
	.byte	0x7
	.long	.LASF420
	.byte	0x2
	.long	0x2648
	.long	0x2653
	.uleb128 0x3
	.long	0x484a
	.uleb128 0x1
	.long	0x1e21
	.byte	0
	.uleb128 0x11
	.long	.LASF421
	.byte	0x2a
	.value	0x101
	.byte	0x5
	.long	.LASF422
	.byte	0x2
	.long	0x2669
	.long	0x2679
	.uleb128 0x3
	.long	0x484a
	.uleb128 0x1
	.long	0x641
	.uleb128 0x1
	.long	0x4859
	.byte	0
	.uleb128 0x11
	.long	.LASF423
	.byte	0x2a
	.value	0x1fd
	.byte	0x5
	.long	.LASF424
	.byte	0x2
	.long	0x268f
	.long	0x26a4
	.uleb128 0x3
	.long	0x484a
	.uleb128 0x1
	.long	0x2045
	.uleb128 0x1
	.long	0x1e21
	.uleb128 0x1
	.long	0x4859
	.byte	0
	.uleb128 0x11
	.long	.LASF425
	.byte	0x2a
	.value	0x263
	.byte	0x5
	.long	.LASF426
	.byte	0x2
	.long	0x26ba
	.long	0x26c5
	.uleb128 0x3
	.long	0x484a
	.uleb128 0x1
	.long	0x1e21
	.byte	0
	.uleb128 0xe
	.long	.LASF427
	.byte	0x2a
	.value	0x2af
	.byte	0x5
	.long	.LASF428
	.long	0x38e3
	.byte	0x2
	.long	0x26df
	.long	0x26e5
	.uleb128 0x3
	.long	0x484a
	.byte	0
	.uleb128 0xe
	.long	.LASF429
	.byte	0x2a
	.value	0x154
	.byte	0x5
	.long	.LASF430
	.long	0x2045
	.byte	0x2
	.long	0x26ff
	.long	0x270f
	.uleb128 0x3
	.long	0x484a
	.uleb128 0x1
	.long	0x2071
	.uleb128 0x1
	.long	0x4872
	.byte	0
	.uleb128 0xe
	.long	.LASF431
	.byte	0x6
	.value	0x6d6
	.byte	0x7
	.long	.LASF432
	.long	0x2045
	.byte	0x2
	.long	0x2729
	.long	0x2739
	.uleb128 0x3
	.long	0x484a
	.uleb128 0x1
	.long	0x2071
	.uleb128 0x1
	.long	0x4872
	.byte	0
	.uleb128 0xe
	.long	.LASF433
	.byte	0x6
	.value	0x6dc
	.byte	0x7
	.long	.LASF434
	.long	0x1e21
	.byte	0x2
	.long	0x2753
	.long	0x2763
	.uleb128 0x3
	.long	0x486d
	.uleb128 0x1
	.long	0x1e21
	.uleb128 0x1
	.long	0x2e7
	.byte	0
	.uleb128 0x4c
	.long	.LASF435
	.byte	0x6
	.value	0x6e7
	.byte	0x7
	.long	.LASF436
	.long	0x1e21
	.byte	0x2
	.long	0x2784
	.uleb128 0x1
	.long	0x1e21
	.uleb128 0x1
	.long	0x4854
	.byte	0
	.uleb128 0x4c
	.long	.LASF437
	.byte	0x6
	.value	0x6f0
	.byte	0x7
	.long	.LASF438
	.long	0x1e21
	.byte	0x2
	.long	0x27a0
	.uleb128 0x1
	.long	0x4877
	.byte	0
	.uleb128 0x11
	.long	.LASF439
	.byte	0x6
	.value	0x700
	.byte	0x7
	.long	.LASF440
	.byte	0x2
	.long	0x27b6
	.long	0x27c1
	.uleb128 0x3
	.long	0x484a
	.uleb128 0x1
	.long	0x1d0f
	.byte	0
	.uleb128 0x1b
	.long	.LASF441
	.byte	0x2a
	.byte	0xab
	.byte	0x5
	.long	.LASF442
	.long	0x2045
	.byte	0x2
	.long	0x27da
	.long	0x27e5
	.uleb128 0x3
	.long	0x484a
	.uleb128 0x1
	.long	0x2045
	.byte	0
	.uleb128 0x1b
	.long	.LASF441
	.byte	0x2a
	.byte	0xb8
	.byte	0x5
	.long	.LASF443
	.long	0x2045
	.byte	0x2
	.long	0x27fe
	.long	0x280e
	.uleb128 0x3
	.long	0x484a
	.uleb128 0x1
	.long	0x2045
	.uleb128 0x1
	.long	0x2045
	.byte	0
	.uleb128 0x1f
	.long	.LASF444
	.byte	0x6
	.value	0x717
	.byte	0x7
	.long	.LASF445
	.long	0x2823
	.long	0x2833
	.uleb128 0x3
	.long	0x484a
	.uleb128 0x1
	.long	0x4863
	.uleb128 0x1
	.long	0xb9f
	.byte	0
	.uleb128 0x1f
	.long	.LASF444
	.byte	0x6
	.value	0x722
	.byte	0x7
	.long	.LASF446
	.long	0x2848
	.long	0x2858
	.uleb128 0x3
	.long	0x484a
	.uleb128 0x1
	.long	0x4863
	.uleb128 0x1
	.long	0x635
	.byte	0
	.uleb128 0xd
	.string	"_Tp"
	.long	0x113
	.uleb128 0x4a
	.long	.LASF314
	.long	0x171c
	.byte	0
	.uleb128 0x9
	.long	0x1c7d
	.uleb128 0x27
	.long	.LASF447
	.byte	0x10
	.byte	0x2b
	.byte	0x2f
	.byte	0xb
	.long	0x2960
	.uleb128 0x23
	.long	.LASF346
	.byte	0x2b
	.byte	0x36
	.byte	0x1a
	.long	0x2e2
	.uleb128 0x6
	.long	.LASF448
	.byte	0x2b
	.byte	0x3a
	.byte	0x12
	.long	0x287d
	.byte	0
	.uleb128 0x23
	.long	.LASF264
	.byte	0x2b
	.byte	0x35
	.byte	0x18
	.long	0x641
	.uleb128 0x6
	.long	.LASF449
	.byte	0x2b
	.byte	0x3b
	.byte	0x13
	.long	0x2896
	.byte	0x8
	.uleb128 0x22
	.long	.LASF450
	.byte	0x2b
	.byte	0x3e
	.byte	0x11
	.long	.LASF451
	.long	0x28c3
	.long	0x28d3
	.uleb128 0x3
	.long	0x487c
	.uleb128 0x1
	.long	0x28d3
	.uleb128 0x1
	.long	0x2896
	.byte	0
	.uleb128 0x23
	.long	.LASF349
	.byte	0x2b
	.byte	0x37
	.byte	0x1a
	.long	0x2e2
	.uleb128 0x1d
	.long	.LASF450
	.byte	0x2b
	.byte	0x42
	.byte	0x11
	.long	.LASF452
	.long	0x28f3
	.long	0x28f9
	.uleb128 0x3
	.long	0x487c
	.byte	0
	.uleb128 0x1b
	.long	.LASF369
	.byte	0x2b
	.byte	0x47
	.byte	0x7
	.long	.LASF453
	.long	0x2896
	.byte	0x1
	.long	0x2912
	.long	0x2918
	.uleb128 0x3
	.long	0x4881
	.byte	0
	.uleb128 0x1b
	.long	.LASF347
	.byte	0x2b
	.byte	0x4b
	.byte	0x7
	.long	.LASF454
	.long	0x28d3
	.byte	0x1
	.long	0x2931
	.long	0x2937
	.uleb128 0x3
	.long	0x4881
	.byte	0
	.uleb128 0x8d
	.string	"end"
	.byte	0x2b
	.byte	0x4f
	.byte	0x7
	.long	.LASF890
	.long	0x28d3
	.byte	0x1
	.long	0x2951
	.long	0x2957
	.uleb128 0x3
	.long	0x4881
	.byte	0
	.uleb128 0xd
	.string	"_E"
	.long	0x113
	.byte	0
	.uleb128 0x9
	.long	0x2870
	.uleb128 0x36
	.long	.LASF456
	.uleb128 0x36
	.long	.LASF457
	.uleb128 0x28
	.long	.LASF458
	.byte	0x1
	.byte	0x17
	.value	0x896
	.byte	0xc
	.long	0x2994
	.uleb128 0x19
	.long	.LASF243
	.byte	0x17
	.value	0x897
	.byte	0x13
	.long	0x1123
	.uleb128 0xd
	.string	"_Tp"
	.long	0x1123
	.byte	0
	.uleb128 0x16
	.long	.LASF459
	.byte	0x1
	.byte	0xc
	.byte	0xd2
	.byte	0xc
	.long	0x29ba
	.uleb128 0x5
	.long	.LASF460
	.byte	0xc
	.byte	0xd4
	.byte	0x2a
	.long	0x8a4
	.uleb128 0x5
	.long	.LASF56
	.byte	0xc
	.byte	0xd5
	.byte	0x2b
	.long	0x113
	.byte	0
	.uleb128 0x61
	.long	.LASF461
	.byte	0x34
	.long	.LASF463
	.uleb128 0x61
	.long	.LASF462
	.byte	0x37
	.long	.LASF464
	.uleb128 0x57
	.long	.LASF465
	.byte	0x2c
	.byte	0x4b
	.byte	0x3
	.long	.LASF466
	.long	0x29e4
	.uleb128 0x1
	.long	0x2e7
	.byte	0
	.uleb128 0x37
	.long	.LASF467
	.byte	0x2
	.value	0x397
	.byte	0x5
	.long	.LASF468
	.long	0x2a17
	.uleb128 0x4
	.long	.LASF126
	.long	0x47b4
	.uleb128 0xd
	.string	"_Tp"
	.long	0x113
	.uleb128 0x1
	.long	0x47b4
	.uleb128 0x1
	.long	0x47b4
	.uleb128 0x1
	.long	0x4509
	.byte	0
	.uleb128 0x37
	.long	.LASF469
	.byte	0x2
	.value	0x3c8
	.byte	0x5
	.long	.LASF470
	.long	0x2a4a
	.uleb128 0x4
	.long	.LASF471
	.long	0x47b4
	.uleb128 0xd
	.string	"_Tp"
	.long	0x113
	.uleb128 0x1
	.long	0x47b4
	.uleb128 0x1
	.long	0x47b4
	.uleb128 0x1
	.long	0x4509
	.byte	0
	.uleb128 0xc
	.long	.LASF472
	.byte	0x2
	.value	0x455
	.byte	0x5
	.long	.LASF473
	.long	0x47b4
	.long	0x2a8f
	.uleb128 0x4
	.long	.LASF474
	.long	0x47b4
	.uleb128 0x4
	.long	.LASF152
	.long	0x59
	.uleb128 0xd
	.string	"_Tp"
	.long	0x113
	.uleb128 0x1
	.long	0x47b4
	.uleb128 0x1
	.long	0x59
	.uleb128 0x1
	.long	0x4509
	.uleb128 0x1
	.long	0x8a4
	.byte	0
	.uleb128 0x1a
	.long	.LASF475
	.byte	0xc
	.byte	0xee
	.byte	0x5
	.long	.LASF476
	.long	0x29a1
	.long	0x2ab2
	.uleb128 0x4
	.long	.LASF477
	.long	0x47b4
	.uleb128 0x1
	.long	0x4a9d
	.byte	0
	.uleb128 0xc
	.long	.LASF478
	.byte	0x2
	.value	0x478
	.byte	0x5
	.long	.LASF479
	.long	0x47b4
	.long	0x2af2
	.uleb128 0xd
	.string	"_OI"
	.long	0x47b4
	.uleb128 0x4
	.long	.LASF152
	.long	0x59
	.uleb128 0xd
	.string	"_Tp"
	.long	0x113
	.uleb128 0x1
	.long	0x47b4
	.uleb128 0x1
	.long	0x59
	.uleb128 0x1
	.long	0x4509
	.byte	0
	.uleb128 0x41
	.long	.LASF480
	.byte	0xa
	.byte	0x6d
	.byte	0x5
	.long	.LASF482
	.long	0x2b16
	.uleb128 0xd
	.string	"_Tp"
	.long	0x113
	.uleb128 0x62
	.long	.LASF834
	.uleb128 0x1
	.long	0x47b4
	.byte	0
	.uleb128 0x1a
	.long	.LASF483
	.byte	0xb
	.byte	0x31
	.byte	0x5
	.long	.LASF484
	.long	0x47b4
	.long	0x2b39
	.uleb128 0xd
	.string	"_Tp"
	.long	0x113
	.uleb128 0x1
	.long	0x47c8
	.byte	0
	.uleb128 0xc
	.long	.LASF485
	.byte	0x9
	.value	0x111
	.byte	0x5
	.long	.LASF486
	.long	0x47b4
	.long	0x2b79
	.uleb128 0x4
	.long	.LASF126
	.long	0x47b4
	.uleb128 0x4
	.long	.LASF152
	.long	0x59
	.uleb128 0xd
	.string	"_Tp"
	.long	0x113
	.uleb128 0x1
	.long	0x47b4
	.uleb128 0x1
	.long	0x59
	.uleb128 0x1
	.long	0x4509
	.byte	0
	.uleb128 0xc
	.long	.LASF487
	.byte	0x9
	.value	0x276
	.byte	0x5
	.long	.LASF488
	.long	0x47b4
	.long	0x2bab
	.uleb128 0x4
	.long	.LASF126
	.long	0x47b4
	.uleb128 0x4
	.long	.LASF152
	.long	0x59
	.uleb128 0x1
	.long	0x47b4
	.uleb128 0x1
	.long	0x59
	.byte	0
	.uleb128 0xc
	.long	.LASF489
	.byte	0x9
	.value	0x198
	.byte	0x5
	.long	.LASF490
	.long	0x47b4
	.long	0x2bf9
	.uleb128 0x4
	.long	.LASF126
	.long	0x47b4
	.uleb128 0x4
	.long	.LASF152
	.long	0x59
	.uleb128 0xd
	.string	"_Tp"
	.long	0x113
	.uleb128 0x4
	.long	.LASF491
	.long	0x113
	.uleb128 0x1
	.long	0x47b4
	.uleb128 0x1
	.long	0x59
	.uleb128 0x1
	.long	0x4509
	.uleb128 0x1
	.long	0x47dc
	.byte	0
	.uleb128 0x41
	.long	.LASF492
	.byte	0xa
	.byte	0xb6
	.byte	0x5
	.long	.LASF493
	.long	0x2c1d
	.uleb128 0x4
	.long	.LASF126
	.long	0x47b4
	.uleb128 0x1
	.long	0x47b4
	.uleb128 0x1
	.long	0x47b4
	.byte	0
	.uleb128 0xc
	.long	.LASF494
	.byte	0x9
	.value	0x2be
	.byte	0x5
	.long	.LASF495
	.long	0x47b4
	.long	0x2c5d
	.uleb128 0x4
	.long	.LASF126
	.long	0x47b4
	.uleb128 0x4
	.long	.LASF152
	.long	0x59
	.uleb128 0xd
	.string	"_Tp"
	.long	0x113
	.uleb128 0x1
	.long	0x47b4
	.uleb128 0x1
	.long	0x59
	.uleb128 0x1
	.long	0x47dc
	.byte	0
	.uleb128 0x37
	.long	.LASF496
	.byte	0x8
	.value	0x34d
	.byte	0x5
	.long	.LASF497
	.long	0x2c90
	.uleb128 0x4
	.long	.LASF126
	.long	0x47b4
	.uleb128 0xd
	.string	"_Tp"
	.long	0x113
	.uleb128 0x1
	.long	0x47b4
	.uleb128 0x1
	.long	0x47b4
	.uleb128 0x1
	.long	0x47dc
	.byte	0
	.uleb128 0xc
	.long	.LASF498
	.byte	0x23
	.value	0x2ac
	.byte	0x5
	.long	.LASF499
	.long	0x450e
	.long	0x2cbd
	.uleb128 0x4
	.long	.LASF123
	.long	0x107
	.uleb128 0x4
	.long	.LASF145
	.long	0x8bf
	.uleb128 0x1
	.long	0x450e
	.byte	0
	.uleb128 0xc
	.long	.LASF500
	.byte	0x23
	.value	0x263
	.byte	0x5
	.long	.LASF501
	.long	0x450e
	.long	0x2ce6
	.uleb128 0x4
	.long	.LASF145
	.long	0x8bf
	.uleb128 0x1
	.long	0x450e
	.uleb128 0x1
	.long	0x2e7
	.byte	0
	.uleb128 0x1a
	.long	.LASF502
	.byte	0x2
	.byte	0xe6
	.byte	0x5
	.long	.LASF503
	.long	0x4523
	.long	0x2d0e
	.uleb128 0xd
	.string	"_Tp"
	.long	0x59
	.uleb128 0x1
	.long	0x4523
	.uleb128 0x1
	.long	0x4523
	.byte	0
	.uleb128 0x4d
	.long	.LASF504
	.byte	0x2
	.value	0x3f2
	.byte	0x3
	.long	.LASF505
	.long	0x59
	.uleb128 0x1
	.long	0x59
	.byte	0
	.byte	0
	.uleb128 0x7
	.long	.LASF506
	.byte	0x2d
	.value	0x11d
	.byte	0xf
	.long	0xa3
	.long	0x2d3d
	.uleb128 0x1
	.long	0x113
	.byte	0
	.uleb128 0x7
	.long	.LASF507
	.byte	0x2d
	.value	0x2e8
	.byte	0xf
	.long	0xa3
	.long	0x2d54
	.uleb128 0x1
	.long	0x2d54
	.byte	0
	.uleb128 0x8
	.long	0x13c
	.uleb128 0x7
	.long	.LASF508
	.byte	0x2d
	.value	0x305
	.byte	0x11
	.long	0x2d7a
	.long	0x2d7a
	.uleb128 0x1
	.long	0x2d7a
	.uleb128 0x1
	.long	0x113
	.uleb128 0x1
	.long	0x2d54
	.byte	0
	.uleb128 0x8
	.long	0x2d7f
	.uleb128 0x14
	.byte	0x4
	.byte	0x5
	.long	.LASF509
	.uleb128 0x9
	.long	0x2d7f
	.uleb128 0x7
	.long	.LASF510
	.byte	0x2d
	.value	0x2f6
	.byte	0xf
	.long	0xa3
	.long	0x2da7
	.uleb128 0x1
	.long	0x2d7f
	.uleb128 0x1
	.long	0x2d54
	.byte	0
	.uleb128 0x7
	.long	.LASF511
	.byte	0x2d
	.value	0x30c
	.byte	0xc
	.long	0x113
	.long	0x2dc3
	.uleb128 0x1
	.long	0x2dc3
	.uleb128 0x1
	.long	0x2d54
	.byte	0
	.uleb128 0x8
	.long	0x2d86
	.uleb128 0x7
	.long	.LASF512
	.byte	0x2d
	.value	0x24c
	.byte	0xc
	.long	0x113
	.long	0x2de4
	.uleb128 0x1
	.long	0x2d54
	.uleb128 0x1
	.long	0x113
	.byte	0
	.uleb128 0x7
	.long	.LASF513
	.byte	0x2d
	.value	0x253
	.byte	0xc
	.long	0x113
	.long	0x2e01
	.uleb128 0x1
	.long	0x2d54
	.uleb128 0x1
	.long	0x2dc3
	.uleb128 0x31
	.byte	0
	.uleb128 0xc
	.long	.LASF514
	.byte	0x2d
	.value	0x291
	.byte	0xc
	.long	.LASF515
	.long	0x113
	.long	0x2e22
	.uleb128 0x1
	.long	0x2d54
	.uleb128 0x1
	.long	0x2dc3
	.uleb128 0x31
	.byte	0
	.uleb128 0x7
	.long	.LASF516
	.byte	0x2d
	.value	0x2e9
	.byte	0xf
	.long	0xa3
	.long	0x2e39
	.uleb128 0x1
	.long	0x2d54
	.byte	0
	.uleb128 0x4e
	.long	.LASF707
	.byte	0x2d
	.value	0x2ef
	.byte	0xf
	.long	0xa3
	.uleb128 0x7
	.long	.LASF517
	.byte	0x2d
	.value	0x134
	.byte	0xf
	.long	0x4d
	.long	0x2e67
	.uleb128 0x1
	.long	0x2e7
	.uleb128 0x1
	.long	0x4d
	.uleb128 0x1
	.long	0x2e67
	.byte	0
	.uleb128 0x8
	.long	0x12b
	.uleb128 0x7
	.long	.LASF518
	.byte	0x2d
	.value	0x129
	.byte	0xf
	.long	0x4d
	.long	0x2e92
	.uleb128 0x1
	.long	0x2d7a
	.uleb128 0x1
	.long	0x2e7
	.uleb128 0x1
	.long	0x4d
	.uleb128 0x1
	.long	0x2e67
	.byte	0
	.uleb128 0x7
	.long	.LASF519
	.byte	0x2d
	.value	0x125
	.byte	0xc
	.long	0x113
	.long	0x2ea9
	.uleb128 0x1
	.long	0x2ea9
	.byte	0
	.uleb128 0x8
	.long	0x137
	.uleb128 0x7
	.long	.LASF520
	.byte	0x2d
	.value	0x152
	.byte	0xf
	.long	0x4d
	.long	0x2ed4
	.uleb128 0x1
	.long	0x2d7a
	.uleb128 0x1
	.long	0x2ed4
	.uleb128 0x1
	.long	0x4d
	.uleb128 0x1
	.long	0x2e67
	.byte	0
	.uleb128 0x8
	.long	0x2e7
	.uleb128 0x7
	.long	.LASF521
	.byte	0x2d
	.value	0x2f7
	.byte	0xf
	.long	0xa3
	.long	0x2ef5
	.uleb128 0x1
	.long	0x2d7f
	.uleb128 0x1
	.long	0x2d54
	.byte	0
	.uleb128 0x7
	.long	.LASF522
	.byte	0x2d
	.value	0x2fd
	.byte	0xf
	.long	0xa3
	.long	0x2f0c
	.uleb128 0x1
	.long	0x2d7f
	.byte	0
	.uleb128 0x7
	.long	.LASF523
	.byte	0x2d
	.value	0x25d
	.byte	0xc
	.long	0x113
	.long	0x2f2e
	.uleb128 0x1
	.long	0x2d7a
	.uleb128 0x1
	.long	0x4d
	.uleb128 0x1
	.long	0x2dc3
	.uleb128 0x31
	.byte	0
	.uleb128 0xc
	.long	.LASF524
	.byte	0x2d
	.value	0x298
	.byte	0xc
	.long	.LASF525
	.long	0x113
	.long	0x2f4f
	.uleb128 0x1
	.long	0x2dc3
	.uleb128 0x1
	.long	0x2dc3
	.uleb128 0x31
	.byte	0
	.uleb128 0x7
	.long	.LASF526
	.byte	0x2d
	.value	0x314
	.byte	0xf
	.long	0xa3
	.long	0x2f6b
	.uleb128 0x1
	.long	0xa3
	.uleb128 0x1
	.long	0x2d54
	.byte	0
	.uleb128 0x7
	.long	.LASF527
	.byte	0x2d
	.value	0x265
	.byte	0xc
	.long	0x113
	.long	0x2f8c
	.uleb128 0x1
	.long	0x2d54
	.uleb128 0x1
	.long	0x2dc3
	.uleb128 0x1
	.long	0x2f8c
	.byte	0
	.uleb128 0x8
	.long	0x65
	.uleb128 0xc
	.long	.LASF528
	.byte	0x2d
	.value	0x2c7
	.byte	0xc
	.long	.LASF529
	.long	0x113
	.long	0x2fb6
	.uleb128 0x1
	.long	0x2d54
	.uleb128 0x1
	.long	0x2dc3
	.uleb128 0x1
	.long	0x2f8c
	.byte	0
	.uleb128 0x7
	.long	.LASF530
	.byte	0x2d
	.value	0x272
	.byte	0xc
	.long	0x113
	.long	0x2fdc
	.uleb128 0x1
	.long	0x2d7a
	.uleb128 0x1
	.long	0x4d
	.uleb128 0x1
	.long	0x2dc3
	.uleb128 0x1
	.long	0x2f8c
	.byte	0
	.uleb128 0xc
	.long	.LASF531
	.byte	0x2d
	.value	0x2ce
	.byte	0xc
	.long	.LASF532
	.long	0x113
	.long	0x3001
	.uleb128 0x1
	.long	0x2dc3
	.uleb128 0x1
	.long	0x2dc3
	.uleb128 0x1
	.long	0x2f8c
	.byte	0
	.uleb128 0x7
	.long	.LASF533
	.byte	0x2d
	.value	0x26d
	.byte	0xc
	.long	0x113
	.long	0x301d
	.uleb128 0x1
	.long	0x2dc3
	.uleb128 0x1
	.long	0x2f8c
	.byte	0
	.uleb128 0xc
	.long	.LASF534
	.byte	0x2d
	.value	0x2cb
	.byte	0xc
	.long	.LASF535
	.long	0x113
	.long	0x303d
	.uleb128 0x1
	.long	0x2dc3
	.uleb128 0x1
	.long	0x2f8c
	.byte	0
	.uleb128 0x7
	.long	.LASF536
	.byte	0x2d
	.value	0x12e
	.byte	0xf
	.long	0x4d
	.long	0x305e
	.uleb128 0x1
	.long	0x305e
	.uleb128 0x1
	.long	0x2d7f
	.uleb128 0x1
	.long	0x2e67
	.byte	0
	.uleb128 0x8
	.long	0x107
	.uleb128 0xa
	.long	.LASF537
	.byte	0x2d
	.byte	0x61
	.byte	0x11
	.long	0x2d7a
	.long	0x307e
	.uleb128 0x1
	.long	0x2d7a
	.uleb128 0x1
	.long	0x2dc3
	.byte	0
	.uleb128 0xa
	.long	.LASF538
	.byte	0x2d
	.byte	0x6a
	.byte	0xc
	.long	0x113
	.long	0x3099
	.uleb128 0x1
	.long	0x2dc3
	.uleb128 0x1
	.long	0x2dc3
	.byte	0
	.uleb128 0xa
	.long	.LASF539
	.byte	0x2d
	.byte	0x83
	.byte	0xc
	.long	0x113
	.long	0x30b4
	.uleb128 0x1
	.long	0x2dc3
	.uleb128 0x1
	.long	0x2dc3
	.byte	0
	.uleb128 0xa
	.long	.LASF540
	.byte	0x2d
	.byte	0x57
	.byte	0x11
	.long	0x2d7a
	.long	0x30cf
	.uleb128 0x1
	.long	0x2d7a
	.uleb128 0x1
	.long	0x2dc3
	.byte	0
	.uleb128 0xa
	.long	.LASF541
	.byte	0x2d
	.byte	0xbc
	.byte	0xf
	.long	0x4d
	.long	0x30ea
	.uleb128 0x1
	.long	0x2dc3
	.uleb128 0x1
	.long	0x2dc3
	.byte	0
	.uleb128 0x7
	.long	.LASF542
	.byte	0x2d
	.value	0x354
	.byte	0xf
	.long	0x4d
	.long	0x3110
	.uleb128 0x1
	.long	0x2d7a
	.uleb128 0x1
	.long	0x4d
	.uleb128 0x1
	.long	0x2dc3
	.uleb128 0x1
	.long	0x3110
	.byte	0
	.uleb128 0x8
	.long	0x31b2
	.uleb128 0x8e
	.string	"tm"
	.byte	0x38
	.byte	0x2e
	.byte	0x7
	.byte	0x8
	.long	0x31b2
	.uleb128 0x6
	.long	.LASF543
	.byte	0x2e
	.byte	0x9
	.byte	0x7
	.long	0x113
	.byte	0
	.uleb128 0x6
	.long	.LASF544
	.byte	0x2e
	.byte	0xa
	.byte	0x7
	.long	0x113
	.byte	0x4
	.uleb128 0x6
	.long	.LASF545
	.byte	0x2e
	.byte	0xb
	.byte	0x7
	.long	0x113
	.byte	0x8
	.uleb128 0x6
	.long	.LASF546
	.byte	0x2e
	.byte	0xc
	.byte	0x7
	.long	0x113
	.byte	0xc
	.uleb128 0x6
	.long	.LASF547
	.byte	0x2e
	.byte	0xd
	.byte	0x7
	.long	0x113
	.byte	0x10
	.uleb128 0x6
	.long	.LASF548
	.byte	0x2e
	.byte	0xe
	.byte	0x7
	.long	0x113
	.byte	0x14
	.uleb128 0x6
	.long	.LASF549
	.byte	0x2e
	.byte	0xf
	.byte	0x7
	.long	0x113
	.byte	0x18
	.uleb128 0x6
	.long	.LASF550
	.byte	0x2e
	.byte	0x10
	.byte	0x7
	.long	0x113
	.byte	0x1c
	.uleb128 0x6
	.long	.LASF551
	.byte	0x2e
	.byte	0x11
	.byte	0x7
	.long	0x113
	.byte	0x20
	.uleb128 0x6
	.long	.LASF552
	.byte	0x2e
	.byte	0x14
	.byte	0xc
	.long	0x32f1
	.byte	0x28
	.uleb128 0x6
	.long	.LASF553
	.byte	0x2e
	.byte	0x15
	.byte	0xf
	.long	0x2e7
	.byte	0x30
	.byte	0
	.uleb128 0x9
	.long	0x3115
	.uleb128 0xa
	.long	.LASF554
	.byte	0x2d
	.byte	0xdf
	.byte	0xf
	.long	0x4d
	.long	0x31cd
	.uleb128 0x1
	.long	0x2dc3
	.byte	0
	.uleb128 0xa
	.long	.LASF555
	.byte	0x2d
	.byte	0x65
	.byte	0x11
	.long	0x2d7a
	.long	0x31ed
	.uleb128 0x1
	.long	0x2d7a
	.uleb128 0x1
	.long	0x2dc3
	.uleb128 0x1
	.long	0x4d
	.byte	0
	.uleb128 0xa
	.long	.LASF556
	.byte	0x2d
	.byte	0x6d
	.byte	0xc
	.long	0x113
	.long	0x320d
	.uleb128 0x1
	.long	0x2dc3
	.uleb128 0x1
	.long	0x2dc3
	.uleb128 0x1
	.long	0x4d
	.byte	0
	.uleb128 0xa
	.long	.LASF557
	.byte	0x2d
	.byte	0x5c
	.byte	0x11
	.long	0x2d7a
	.long	0x322d
	.uleb128 0x1
	.long	0x2d7a
	.uleb128 0x1
	.long	0x2dc3
	.uleb128 0x1
	.long	0x4d
	.byte	0
	.uleb128 0x7
	.long	.LASF558
	.byte	0x2d
	.value	0x158
	.byte	0xf
	.long	0x4d
	.long	0x3253
	.uleb128 0x1
	.long	0x305e
	.uleb128 0x1
	.long	0x3253
	.uleb128 0x1
	.long	0x4d
	.uleb128 0x1
	.long	0x2e67
	.byte	0
	.uleb128 0x8
	.long	0x2dc3
	.uleb128 0xa
	.long	.LASF559
	.byte	0x2d
	.byte	0xc0
	.byte	0xf
	.long	0x4d
	.long	0x3273
	.uleb128 0x1
	.long	0x2dc3
	.uleb128 0x1
	.long	0x2dc3
	.byte	0
	.uleb128 0x7
	.long	.LASF560
	.byte	0x2d
	.value	0x17a
	.byte	0xf
	.long	0x3f
	.long	0x328f
	.uleb128 0x1
	.long	0x2dc3
	.uleb128 0x1
	.long	0x328f
	.byte	0
	.uleb128 0x8
	.long	0x2d7a
	.uleb128 0x7
	.long	.LASF561
	.byte	0x2d
	.value	0x17f
	.byte	0xe
	.long	0x38
	.long	0x32b0
	.uleb128 0x1
	.long	0x2dc3
	.uleb128 0x1
	.long	0x328f
	.byte	0
	.uleb128 0xa
	.long	.LASF562
	.byte	0x2d
	.byte	0xda
	.byte	0x11
	.long	0x2d7a
	.long	0x32d0
	.uleb128 0x1
	.long	0x2d7a
	.uleb128 0x1
	.long	0x2dc3
	.uleb128 0x1
	.long	0x328f
	.byte	0
	.uleb128 0x7
	.long	.LASF563
	.byte	0x2d
	.value	0x1ad
	.byte	0x11
	.long	0x32f1
	.long	0x32f1
	.uleb128 0x1
	.long	0x2dc3
	.uleb128 0x1
	.long	0x328f
	.uleb128 0x1
	.long	0x113
	.byte	0
	.uleb128 0x14
	.byte	0x8
	.byte	0x5
	.long	.LASF564
	.uleb128 0x9
	.long	0x32f1
	.uleb128 0x7
	.long	.LASF565
	.byte	0x2d
	.value	0x1b2
	.byte	0x1a
	.long	0x59
	.long	0x331e
	.uleb128 0x1
	.long	0x2dc3
	.uleb128 0x1
	.long	0x328f
	.uleb128 0x1
	.long	0x113
	.byte	0
	.uleb128 0xa
	.long	.LASF566
	.byte	0x2d
	.byte	0x87
	.byte	0xf
	.long	0x4d
	.long	0x333e
	.uleb128 0x1
	.long	0x2d7a
	.uleb128 0x1
	.long	0x2dc3
	.uleb128 0x1
	.long	0x4d
	.byte	0
	.uleb128 0x7
	.long	.LASF567
	.byte	0x2d
	.value	0x121
	.byte	0xc
	.long	0x113
	.long	0x3355
	.uleb128 0x1
	.long	0xa3
	.byte	0
	.uleb128 0x7
	.long	.LASF568
	.byte	0x2d
	.value	0x103
	.byte	0xc
	.long	0x113
	.long	0x3376
	.uleb128 0x1
	.long	0x2dc3
	.uleb128 0x1
	.long	0x2dc3
	.uleb128 0x1
	.long	0x4d
	.byte	0
	.uleb128 0x7
	.long	.LASF569
	.byte	0x2d
	.value	0x107
	.byte	0x11
	.long	0x2d7a
	.long	0x3397
	.uleb128 0x1
	.long	0x2d7a
	.uleb128 0x1
	.long	0x2dc3
	.uleb128 0x1
	.long	0x4d
	.byte	0
	.uleb128 0x7
	.long	.LASF570
	.byte	0x2d
	.value	0x10c
	.byte	0x11
	.long	0x2d7a
	.long	0x33b8
	.uleb128 0x1
	.long	0x2d7a
	.uleb128 0x1
	.long	0x2dc3
	.uleb128 0x1
	.long	0x4d
	.byte	0
	.uleb128 0x7
	.long	.LASF571
	.byte	0x2d
	.value	0x110
	.byte	0x11
	.long	0x2d7a
	.long	0x33d9
	.uleb128 0x1
	.long	0x2d7a
	.uleb128 0x1
	.long	0x2d7f
	.uleb128 0x1
	.long	0x4d
	.byte	0
	.uleb128 0x7
	.long	.LASF572
	.byte	0x2d
	.value	0x25a
	.byte	0xc
	.long	0x113
	.long	0x33f1
	.uleb128 0x1
	.long	0x2dc3
	.uleb128 0x31
	.byte	0
	.uleb128 0xc
	.long	.LASF573
	.byte	0x2d
	.value	0x295
	.byte	0xc
	.long	.LASF574
	.long	0x113
	.long	0x340d
	.uleb128 0x1
	.long	0x2dc3
	.uleb128 0x31
	.byte	0
	.uleb128 0x1a
	.long	.LASF575
	.byte	0x2d
	.byte	0xa2
	.byte	0x1d
	.long	.LASF575
	.long	0x2dc3
	.long	0x342c
	.uleb128 0x1
	.long	0x2dc3
	.uleb128 0x1
	.long	0x2d7f
	.byte	0
	.uleb128 0x1a
	.long	.LASF575
	.byte	0x2d
	.byte	0xa0
	.byte	0x17
	.long	.LASF575
	.long	0x2d7a
	.long	0x344b
	.uleb128 0x1
	.long	0x2d7a
	.uleb128 0x1
	.long	0x2d7f
	.byte	0
	.uleb128 0x1a
	.long	.LASF576
	.byte	0x2d
	.byte	0xc6
	.byte	0x1d
	.long	.LASF576
	.long	0x2dc3
	.long	0x346a
	.uleb128 0x1
	.long	0x2dc3
	.uleb128 0x1
	.long	0x2dc3
	.byte	0
	.uleb128 0x1a
	.long	.LASF576
	.byte	0x2d
	.byte	0xc4
	.byte	0x17
	.long	.LASF576
	.long	0x2d7a
	.long	0x3489
	.uleb128 0x1
	.long	0x2d7a
	.uleb128 0x1
	.long	0x2dc3
	.byte	0
	.uleb128 0x1a
	.long	.LASF577
	.byte	0x2d
	.byte	0xac
	.byte	0x1d
	.long	.LASF577
	.long	0x2dc3
	.long	0x34a8
	.uleb128 0x1
	.long	0x2dc3
	.uleb128 0x1
	.long	0x2d7f
	.byte	0
	.uleb128 0x1a
	.long	.LASF577
	.byte	0x2d
	.byte	0xaa
	.byte	0x17
	.long	.LASF577
	.long	0x2d7a
	.long	0x34c7
	.uleb128 0x1
	.long	0x2d7a
	.uleb128 0x1
	.long	0x2d7f
	.byte	0
	.uleb128 0x1a
	.long	.LASF578
	.byte	0x2d
	.byte	0xd1
	.byte	0x1d
	.long	.LASF578
	.long	0x2dc3
	.long	0x34e6
	.uleb128 0x1
	.long	0x2dc3
	.uleb128 0x1
	.long	0x2dc3
	.byte	0
	.uleb128 0x1a
	.long	.LASF578
	.byte	0x2d
	.byte	0xcf
	.byte	0x17
	.long	.LASF578
	.long	0x2d7a
	.long	0x3505
	.uleb128 0x1
	.long	0x2d7a
	.uleb128 0x1
	.long	0x2dc3
	.byte	0
	.uleb128 0x1a
	.long	.LASF579
	.byte	0x2d
	.byte	0xfa
	.byte	0x1d
	.long	.LASF579
	.long	0x2dc3
	.long	0x3529
	.uleb128 0x1
	.long	0x2dc3
	.uleb128 0x1
	.long	0x2d7f
	.uleb128 0x1
	.long	0x4d
	.byte	0
	.uleb128 0x1a
	.long	.LASF579
	.byte	0x2d
	.byte	0xf8
	.byte	0x17
	.long	.LASF579
	.long	0x2d7a
	.long	0x354d
	.uleb128 0x1
	.long	0x2d7a
	.uleb128 0x1
	.long	0x2d7f
	.uleb128 0x1
	.long	0x4d
	.byte	0
	.uleb128 0x8f
	.long	.LASF580
	.byte	0x18
	.value	0x130
	.byte	0xb
	.long	0x3871
	.uleb128 0x2
	.byte	0x16
	.byte	0xfb
	.byte	0xb
	.long	0x3871
	.uleb128 0x17
	.byte	0x16
	.value	0x104
	.byte	0xb
	.long	0x388d
	.uleb128 0x17
	.byte	0x16
	.value	0x105
	.byte	0xb
	.long	0x38b5
	.uleb128 0x3f
	.long	.LASF581
	.byte	0x2f
	.byte	0x25
	.byte	0xb
	.uleb128 0x2
	.byte	0x1e
	.byte	0xc8
	.byte	0xb
	.long	0x3e30
	.uleb128 0x2
	.byte	0x1e
	.byte	0xd8
	.byte	0xb
	.long	0x40be
	.uleb128 0x2
	.byte	0x1e
	.byte	0xe3
	.byte	0xb
	.long	0x40da
	.uleb128 0x2
	.byte	0x1e
	.byte	0xe4
	.byte	0xb
	.long	0x40f0
	.uleb128 0x2
	.byte	0x1e
	.byte	0xe5
	.byte	0xb
	.long	0x4110
	.uleb128 0x2
	.byte	0x1e
	.byte	0xe7
	.byte	0xb
	.long	0x4130
	.uleb128 0x2
	.byte	0x1e
	.byte	0xe8
	.byte	0xb
	.long	0x414b
	.uleb128 0x90
	.string	"div"
	.byte	0x1e
	.byte	0xd5
	.byte	0x3
	.long	.LASF891
	.long	0x3e30
	.long	0x35d5
	.uleb128 0x1
	.long	0x38ae
	.uleb128 0x1
	.long	0x38ae
	.byte	0
	.uleb128 0x27
	.long	.LASF582
	.byte	0x1
	.byte	0x7
	.byte	0x37
	.byte	0xb
	.long	0x3752
	.uleb128 0x1d
	.long	.LASF583
	.byte	0x7
	.byte	0x4f
	.byte	0x7
	.long	.LASF584
	.long	0x35f6
	.long	0x35fc
	.uleb128 0x3
	.long	0x47a5
	.byte	0
	.uleb128 0x1d
	.long	.LASF583
	.byte	0x7
	.byte	0x52
	.byte	0x7
	.long	.LASF585
	.long	0x3610
	.long	0x361b
	.uleb128 0x3
	.long	0x47a5
	.uleb128 0x1
	.long	0x47af
	.byte	0
	.uleb128 0x1d
	.long	.LASF586
	.byte	0x7
	.byte	0x59
	.byte	0x7
	.long	.LASF587
	.long	0x362f
	.long	0x363a
	.uleb128 0x3
	.long	0x47a5
	.uleb128 0x3
	.long	0x113
	.byte	0
	.uleb128 0x23
	.long	.LASF260
	.byte	0x7
	.byte	0x3e
	.byte	0x1a
	.long	0x47b4
	.uleb128 0x1b
	.long	.LASF588
	.byte	0x7
	.byte	0x5c
	.byte	0x7
	.long	.LASF589
	.long	0x363a
	.byte	0x1
	.long	0x365f
	.long	0x366a
	.uleb128 0x3
	.long	0x47be
	.uleb128 0x1
	.long	0x366a
	.byte	0
	.uleb128 0x23
	.long	.LASF383
	.byte	0x7
	.byte	0x40
	.byte	0x1a
	.long	0x47c8
	.uleb128 0x23
	.long	.LASF590
	.byte	0x7
	.byte	0x3f
	.byte	0x1a
	.long	0x2e2
	.uleb128 0x1b
	.long	.LASF588
	.byte	0x7
	.byte	0x60
	.byte	0x7
	.long	.LASF591
	.long	0x3676
	.byte	0x1
	.long	0x369b
	.long	0x36a6
	.uleb128 0x3
	.long	0x47be
	.uleb128 0x1
	.long	0x36a6
	.byte	0
	.uleb128 0x23
	.long	.LASF386
	.byte	0x7
	.byte	0x41
	.byte	0x1a
	.long	0x4509
	.uleb128 0x1b
	.long	.LASF261
	.byte	0x7
	.byte	0x67
	.byte	0x7
	.long	.LASF592
	.long	0x47b4
	.byte	0x1
	.long	0x36cb
	.long	0x36db
	.uleb128 0x3
	.long	0x47a5
	.uleb128 0x1
	.long	0x36db
	.uleb128 0x1
	.long	0x3d9c
	.byte	0
	.uleb128 0x23
	.long	.LASF264
	.byte	0x7
	.byte	0x3b
	.byte	0x1f
	.long	0x641
	.uleb128 0x1d
	.long	.LASF267
	.byte	0x7
	.byte	0x84
	.byte	0x7
	.long	.LASF593
	.long	0x36fb
	.long	0x370b
	.uleb128 0x3
	.long	0x47a5
	.uleb128 0x1
	.long	0x47b4
	.uleb128 0x1
	.long	0x36db
	.byte	0
	.uleb128 0x1b
	.long	.LASF269
	.byte	0x7
	.byte	0x9a
	.byte	0x7
	.long	.LASF594
	.long	0x36db
	.byte	0x1
	.long	0x3724
	.long	0x372a
	.uleb128 0x3
	.long	0x47be
	.byte	0
	.uleb128 0x2d
	.long	.LASF595
	.byte	0x7
	.byte	0xc5
	.byte	0x7
	.long	.LASF596
	.long	0x36db
	.long	0x3742
	.long	0x3748
	.uleb128 0x3
	.long	0x47be
	.byte	0
	.uleb128 0xd
	.string	"_Tp"
	.long	0x113
	.byte	0
	.uleb128 0x9
	.long	0x35d5
	.uleb128 0x16
	.long	.LASF597
	.byte	0x1
	.byte	0x30
	.byte	0x30
	.byte	0xa
	.long	0x3866
	.uleb128 0x2
	.byte	0x30
	.byte	0x30
	.byte	0xa
	.long	0x180b
	.uleb128 0x2
	.byte	0x30
	.byte	0x30
	.byte	0xa
	.long	0x17cc
	.uleb128 0x2
	.byte	0x30
	.byte	0x30
	.byte	0xa
	.long	0x183d
	.uleb128 0x2
	.byte	0x30
	.byte	0x30
	.byte	0xa
	.long	0x185e
	.uleb128 0x2e
	.long	0x17b1
	.uleb128 0x1a
	.long	.LASF598
	.byte	0x30
	.byte	0x61
	.byte	0x1d
	.long	.LASF599
	.long	0x171c
	.long	0x37a3
	.uleb128 0x1
	.long	0x47d7
	.byte	0
	.uleb128 0x41
	.long	.LASF600
	.byte	0x30
	.byte	0x64
	.byte	0x26
	.long	.LASF601
	.long	0x37be
	.uleb128 0x1
	.long	0x47dc
	.uleb128 0x1
	.long	0x47dc
	.byte	0
	.uleb128 0x39
	.long	.LASF602
	.byte	0x67
	.long	.LASF603
	.long	0x38e3
	.uleb128 0x39
	.long	.LASF604
	.byte	0x6a
	.long	.LASF605
	.long	0x38e3
	.uleb128 0x39
	.long	.LASF606
	.byte	0x6d
	.long	.LASF607
	.long	0x38e3
	.uleb128 0x39
	.long	.LASF608
	.byte	0x70
	.long	.LASF609
	.long	0x38e3
	.uleb128 0x39
	.long	.LASF610
	.byte	0x73
	.long	.LASF611
	.long	0x38e3
	.uleb128 0x5
	.long	.LASF56
	.byte	0x30
	.byte	0x38
	.byte	0x35
	.long	0x1894
	.uleb128 0x9
	.long	0x3804
	.uleb128 0x5
	.long	.LASF260
	.byte	0x30
	.byte	0x39
	.byte	0x35
	.long	0x17bf
	.uleb128 0x5
	.long	.LASF383
	.byte	0x30
	.byte	0x3e
	.byte	0x35
	.long	0x47eb
	.uleb128 0x5
	.long	.LASF386
	.byte	0x30
	.byte	0x3f
	.byte	0x35
	.long	0x47f0
	.uleb128 0x16
	.long	.LASF612
	.byte	0x1
	.byte	0x30
	.byte	0x77
	.byte	0xe
	.long	0x385c
	.uleb128 0x5
	.long	.LASF613
	.byte	0x30
	.byte	0x78
	.byte	0x41
	.long	0x18a1
	.uleb128 0xd
	.string	"_Tp"
	.long	0x113
	.byte	0
	.uleb128 0x4
	.long	.LASF314
	.long	0x171c
	.byte	0
	.uleb128 0x36
	.long	.LASF614
	.uleb128 0x36
	.long	.LASF615
	.byte	0
	.uleb128 0x7
	.long	.LASF616
	.byte	0x2d
	.value	0x181
	.byte	0x14
	.long	0x46
	.long	0x388d
	.uleb128 0x1
	.long	0x2dc3
	.uleb128 0x1
	.long	0x328f
	.byte	0
	.uleb128 0x7
	.long	.LASF617
	.byte	0x2d
	.value	0x1ba
	.byte	0x16
	.long	0x38ae
	.long	0x38ae
	.uleb128 0x1
	.long	0x2dc3
	.uleb128 0x1
	.long	0x328f
	.uleb128 0x1
	.long	0x113
	.byte	0
	.uleb128 0x14
	.byte	0x8
	.byte	0x5
	.long	.LASF618
	.uleb128 0x7
	.long	.LASF619
	.byte	0x2d
	.value	0x1c1
	.byte	0x1f
	.long	0x38d6
	.long	0x38d6
	.uleb128 0x1
	.long	0x2dc3
	.uleb128 0x1
	.long	0x328f
	.uleb128 0x1
	.long	0x113
	.byte	0
	.uleb128 0x14
	.byte	0x8
	.byte	0x7
	.long	.LASF620
	.uleb128 0x91
	.long	.LASF892
	.uleb128 0x14
	.byte	0x1
	.byte	0x2
	.long	.LASF621
	.uleb128 0x9
	.long	0x38e3
	.uleb128 0x8
	.long	0x5c2
	.uleb128 0x8
	.long	0x630
	.uleb128 0x14
	.byte	0x1
	.byte	0x8
	.long	.LASF622
	.uleb128 0x14
	.byte	0x10
	.byte	0x7
	.long	.LASF623
	.uleb128 0x14
	.byte	0x1
	.byte	0x6
	.long	.LASF624
	.uleb128 0x14
	.byte	0x2
	.byte	0x5
	.long	.LASF625
	.uleb128 0x14
	.byte	0x10
	.byte	0x5
	.long	.LASF626
	.uleb128 0x14
	.byte	0x2
	.byte	0x10
	.long	.LASF627
	.uleb128 0x14
	.byte	0x4
	.byte	0x10
	.long	.LASF628
	.uleb128 0x8
	.long	0x66f
	.uleb128 0x8
	.long	0x832
	.uleb128 0xb
	.long	0x832
	.uleb128 0x2b
	.long	0x66f
	.uleb128 0xb
	.long	0x66f
	.uleb128 0x8
	.long	0x870
	.uleb128 0x3e
	.long	.LASF629
	.byte	0x1a
	.byte	0x38
	.byte	0xb
	.long	0x395e
	.uleb128 0x92
	.byte	0x1a
	.byte	0x3a
	.byte	0x18
	.long	0x8b7
	.byte	0
	.uleb128 0xb
	.long	0x8e9
	.uleb128 0xb
	.long	0x8f6
	.uleb128 0x8
	.long	0x8f6
	.uleb128 0x8
	.long	0x8e9
	.uleb128 0xb
	.long	0xa31
	.uleb128 0x5
	.long	.LASF630
	.byte	0x31
	.byte	0x25
	.byte	0x15
	.long	0x3907
	.uleb128 0x5
	.long	.LASF631
	.byte	0x31
	.byte	0x26
	.byte	0x17
	.long	0x38f9
	.uleb128 0x5
	.long	.LASF632
	.byte	0x31
	.byte	0x27
	.byte	0x1a
	.long	0x390e
	.uleb128 0x5
	.long	.LASF633
	.byte	0x31
	.byte	0x28
	.byte	0x1c
	.long	0x2db
	.uleb128 0x5
	.long	.LASF634
	.byte	0x31
	.byte	0x29
	.byte	0x14
	.long	0x113
	.uleb128 0x9
	.long	0x39a7
	.uleb128 0x5
	.long	.LASF635
	.byte	0x31
	.byte	0x2a
	.byte	0x16
	.long	0x9a
	.uleb128 0x5
	.long	.LASF636
	.byte	0x31
	.byte	0x2c
	.byte	0x19
	.long	0x32f1
	.uleb128 0x5
	.long	.LASF637
	.byte	0x31
	.byte	0x2d
	.byte	0x1b
	.long	0x59
	.uleb128 0x5
	.long	.LASF638
	.byte	0x31
	.byte	0x34
	.byte	0x12
	.long	0x3977
	.uleb128 0x5
	.long	.LASF639
	.byte	0x31
	.byte	0x35
	.byte	0x13
	.long	0x3983
	.uleb128 0x5
	.long	.LASF640
	.byte	0x31
	.byte	0x36
	.byte	0x13
	.long	0x398f
	.uleb128 0x5
	.long	.LASF641
	.byte	0x31
	.byte	0x37
	.byte	0x14
	.long	0x399b
	.uleb128 0x5
	.long	.LASF642
	.byte	0x31
	.byte	0x38
	.byte	0x13
	.long	0x39a7
	.uleb128 0x5
	.long	.LASF643
	.byte	0x31
	.byte	0x39
	.byte	0x14
	.long	0x39b8
	.uleb128 0x5
	.long	.LASF644
	.byte	0x31
	.byte	0x3a
	.byte	0x13
	.long	0x39c4
	.uleb128 0x5
	.long	.LASF645
	.byte	0x31
	.byte	0x3b
	.byte	0x14
	.long	0x39d0
	.uleb128 0x5
	.long	.LASF646
	.byte	0x31
	.byte	0x48
	.byte	0x12
	.long	0x32f1
	.uleb128 0x5
	.long	.LASF647
	.byte	0x31
	.byte	0x49
	.byte	0x1b
	.long	0x59
	.uleb128 0x5
	.long	.LASF648
	.byte	0x31
	.byte	0x98
	.byte	0x19
	.long	0x32f1
	.uleb128 0x5
	.long	.LASF649
	.byte	0x31
	.byte	0x99
	.byte	0x1b
	.long	0x32f1
	.uleb128 0x5
	.long	.LASF650
	.byte	0x31
	.byte	0x9c
	.byte	0x1b
	.long	0x32f1
	.uleb128 0x5
	.long	.LASF651
	.byte	0x31
	.byte	0xa0
	.byte	0x1a
	.long	0x32f1
	.uleb128 0x5
	.long	.LASF652
	.byte	0x31
	.byte	0xc5
	.byte	0x21
	.long	0x32f1
	.uleb128 0x5
	.long	.LASF653
	.byte	0x32
	.byte	0x18
	.byte	0x12
	.long	0x3977
	.uleb128 0x5
	.long	.LASF654
	.byte	0x32
	.byte	0x19
	.byte	0x13
	.long	0x398f
	.uleb128 0x5
	.long	.LASF655
	.byte	0x32
	.byte	0x1a
	.byte	0x13
	.long	0x39a7
	.uleb128 0x5
	.long	.LASF656
	.byte	0x32
	.byte	0x1b
	.byte	0x13
	.long	0x39c4
	.uleb128 0x5
	.long	.LASF657
	.byte	0x33
	.byte	0x18
	.byte	0x13
	.long	0x3983
	.uleb128 0x5
	.long	.LASF658
	.byte	0x33
	.byte	0x19
	.byte	0x14
	.long	0x399b
	.uleb128 0x5
	.long	.LASF659
	.byte	0x33
	.byte	0x1a
	.byte	0x14
	.long	0x39b8
	.uleb128 0x5
	.long	.LASF660
	.byte	0x33
	.byte	0x1b
	.byte	0x14
	.long	0x39d0
	.uleb128 0x5
	.long	.LASF661
	.byte	0x34
	.byte	0x2b
	.byte	0x18
	.long	0x39dc
	.uleb128 0x5
	.long	.LASF662
	.byte	0x34
	.byte	0x2c
	.byte	0x19
	.long	0x39f4
	.uleb128 0x5
	.long	.LASF663
	.byte	0x34
	.byte	0x2d
	.byte	0x19
	.long	0x3a0c
	.uleb128 0x5
	.long	.LASF664
	.byte	0x34
	.byte	0x2e
	.byte	0x19
	.long	0x3a24
	.uleb128 0x5
	.long	.LASF665
	.byte	0x34
	.byte	0x31
	.byte	0x19
	.long	0x39e8
	.uleb128 0x5
	.long	.LASF666
	.byte	0x34
	.byte	0x32
	.byte	0x1a
	.long	0x3a00
	.uleb128 0x5
	.long	.LASF667
	.byte	0x34
	.byte	0x33
	.byte	0x1a
	.long	0x3a18
	.uleb128 0x5
	.long	.LASF668
	.byte	0x34
	.byte	0x34
	.byte	0x1a
	.long	0x3a30
	.uleb128 0x5
	.long	.LASF669
	.byte	0x34
	.byte	0x3a
	.byte	0x16
	.long	0x3907
	.uleb128 0x5
	.long	.LASF670
	.byte	0x34
	.byte	0x3c
	.byte	0x13
	.long	0x32f1
	.uleb128 0x5
	.long	.LASF671
	.byte	0x34
	.byte	0x3d
	.byte	0x13
	.long	0x32f1
	.uleb128 0x5
	.long	.LASF672
	.byte	0x34
	.byte	0x3e
	.byte	0x13
	.long	0x32f1
	.uleb128 0x5
	.long	.LASF673
	.byte	0x34
	.byte	0x47
	.byte	0x18
	.long	0x38f9
	.uleb128 0x5
	.long	.LASF674
	.byte	0x34
	.byte	0x49
	.byte	0x1b
	.long	0x59
	.uleb128 0x5
	.long	.LASF675
	.byte	0x34
	.byte	0x4a
	.byte	0x1b
	.long	0x59
	.uleb128 0x5
	.long	.LASF676
	.byte	0x34
	.byte	0x4b
	.byte	0x1b
	.long	0x59
	.uleb128 0x5
	.long	.LASF677
	.byte	0x34
	.byte	0x57
	.byte	0x13
	.long	0x32f1
	.uleb128 0x5
	.long	.LASF678
	.byte	0x34
	.byte	0x5a
	.byte	0x1b
	.long	0x59
	.uleb128 0x5
	.long	.LASF679
	.byte	0x34
	.byte	0x65
	.byte	0x15
	.long	0x3a3c
	.uleb128 0x9
	.long	0x3bc8
	.uleb128 0x5
	.long	.LASF680
	.byte	0x34
	.byte	0x66
	.byte	0x16
	.long	0x3a48
	.uleb128 0x16
	.long	.LASF681
	.byte	0x60
	.byte	0x35
	.byte	0x33
	.byte	0x8
	.long	0x3d2b
	.uleb128 0x6
	.long	.LASF682
	.byte	0x35
	.byte	0x37
	.byte	0x9
	.long	0x305e
	.byte	0
	.uleb128 0x6
	.long	.LASF683
	.byte	0x35
	.byte	0x38
	.byte	0x9
	.long	0x305e
	.byte	0x8
	.uleb128 0x6
	.long	.LASF684
	.byte	0x35
	.byte	0x3e
	.byte	0x9
	.long	0x305e
	.byte	0x10
	.uleb128 0x6
	.long	.LASF685
	.byte	0x35
	.byte	0x44
	.byte	0x9
	.long	0x305e
	.byte	0x18
	.uleb128 0x6
	.long	.LASF686
	.byte	0x35
	.byte	0x45
	.byte	0x9
	.long	0x305e
	.byte	0x20
	.uleb128 0x6
	.long	.LASF687
	.byte	0x35
	.byte	0x46
	.byte	0x9
	.long	0x305e
	.byte	0x28
	.uleb128 0x6
	.long	.LASF688
	.byte	0x35
	.byte	0x47
	.byte	0x9
	.long	0x305e
	.byte	0x30
	.uleb128 0x6
	.long	.LASF689
	.byte	0x35
	.byte	0x48
	.byte	0x9
	.long	0x305e
	.byte	0x38
	.uleb128 0x6
	.long	.LASF690
	.byte	0x35
	.byte	0x49
	.byte	0x9
	.long	0x305e
	.byte	0x40
	.uleb128 0x6
	.long	.LASF691
	.byte	0x35
	.byte	0x4a
	.byte	0x9
	.long	0x305e
	.byte	0x48
	.uleb128 0x6
	.long	.LASF692
	.byte	0x35
	.byte	0x4b
	.byte	0x8
	.long	0x107
	.byte	0x50
	.uleb128 0x6
	.long	.LASF693
	.byte	0x35
	.byte	0x4c
	.byte	0x8
	.long	0x107
	.byte	0x51
	.uleb128 0x6
	.long	.LASF694
	.byte	0x35
	.byte	0x4e
	.byte	0x8
	.long	0x107
	.byte	0x52
	.uleb128 0x6
	.long	.LASF695
	.byte	0x35
	.byte	0x50
	.byte	0x8
	.long	0x107
	.byte	0x53
	.uleb128 0x6
	.long	.LASF696
	.byte	0x35
	.byte	0x52
	.byte	0x8
	.long	0x107
	.byte	0x54
	.uleb128 0x6
	.long	.LASF697
	.byte	0x35
	.byte	0x54
	.byte	0x8
	.long	0x107
	.byte	0x55
	.uleb128 0x6
	.long	.LASF698
	.byte	0x35
	.byte	0x5b
	.byte	0x8
	.long	0x107
	.byte	0x56
	.uleb128 0x6
	.long	.LASF699
	.byte	0x35
	.byte	0x5c
	.byte	0x8
	.long	0x107
	.byte	0x57
	.uleb128 0x6
	.long	.LASF700
	.byte	0x35
	.byte	0x5f
	.byte	0x8
	.long	0x107
	.byte	0x58
	.uleb128 0x6
	.long	.LASF701
	.byte	0x35
	.byte	0x61
	.byte	0x8
	.long	0x107
	.byte	0x59
	.uleb128 0x6
	.long	.LASF702
	.byte	0x35
	.byte	0x63
	.byte	0x8
	.long	0x107
	.byte	0x5a
	.uleb128 0x6
	.long	.LASF703
	.byte	0x35
	.byte	0x65
	.byte	0x8
	.long	0x107
	.byte	0x5b
	.uleb128 0x6
	.long	.LASF704
	.byte	0x35
	.byte	0x6c
	.byte	0x8
	.long	0x107
	.byte	0x5c
	.uleb128 0x6
	.long	.LASF705
	.byte	0x35
	.byte	0x6d
	.byte	0x8
	.long	0x107
	.byte	0x5d
	.byte	0
	.uleb128 0xa
	.long	.LASF706
	.byte	0x35
	.byte	0x7a
	.byte	0xe
	.long	0x305e
	.long	0x3d46
	.uleb128 0x1
	.long	0x113
	.uleb128 0x1
	.long	0x2e7
	.byte	0
	.uleb128 0x4f
	.long	.LASF708
	.byte	0x35
	.byte	0x7d
	.byte	0x16
	.long	0x3d52
	.uleb128 0x8
	.long	0x3be5
	.uleb128 0x5
	.long	.LASF709
	.byte	0x36
	.byte	0xa
	.byte	0x12
	.long	0x3a78
	.uleb128 0x9
	.long	0x3d57
	.uleb128 0x16
	.long	.LASF710
	.byte	0x10
	.byte	0x37
	.byte	0xb
	.byte	0x8
	.long	0x3d90
	.uleb128 0x6
	.long	.LASF711
	.byte	0x37
	.byte	0x10
	.byte	0xc
	.long	0x3a78
	.byte	0
	.uleb128 0x6
	.long	.LASF712
	.byte	0x37
	.byte	0x15
	.byte	0x15
	.long	0x3a84
	.byte	0x8
	.byte	0
	.uleb128 0x5
	.long	.LASF713
	.byte	0x38
	.byte	0x7
	.byte	0x13
	.long	0x3a6c
	.uleb128 0x8
	.long	0x3da1
	.uleb128 0x93
	.uleb128 0x3d
	.byte	0x8
	.byte	0x39
	.byte	0x3c
	.byte	0x3
	.long	.LASF715
	.long	0x3dca
	.uleb128 0x6
	.long	.LASF716
	.byte	0x39
	.byte	0x3d
	.byte	0x9
	.long	0x113
	.byte	0
	.uleb128 0x50
	.string	"rem"
	.byte	0x3e
	.byte	0x9
	.long	0x113
	.byte	0x4
	.byte	0
	.uleb128 0x5
	.long	.LASF717
	.byte	0x39
	.byte	0x3f
	.byte	0x5
	.long	0x3da3
	.uleb128 0x3d
	.byte	0x10
	.byte	0x39
	.byte	0x44
	.byte	0x3
	.long	.LASF718
	.long	0x3dfd
	.uleb128 0x6
	.long	.LASF716
	.byte	0x39
	.byte	0x45
	.byte	0xe
	.long	0x32f1
	.byte	0
	.uleb128 0x50
	.string	"rem"
	.byte	0x46
	.byte	0xe
	.long	0x32f1
	.byte	0x8
	.byte	0
	.uleb128 0x5
	.long	.LASF719
	.byte	0x39
	.byte	0x47
	.byte	0x5
	.long	0x3dd6
	.uleb128 0x3d
	.byte	0x10
	.byte	0x39
	.byte	0x4e
	.byte	0x3
	.long	.LASF720
	.long	0x3e30
	.uleb128 0x6
	.long	.LASF716
	.byte	0x39
	.byte	0x4f
	.byte	0x13
	.long	0x38ae
	.byte	0
	.uleb128 0x50
	.string	"rem"
	.byte	0x50
	.byte	0x13
	.long	0x38ae
	.byte	0x8
	.byte	0
	.uleb128 0x5
	.long	.LASF721
	.byte	0x39
	.byte	0x51
	.byte	0x5
	.long	0x3e09
	.uleb128 0x19
	.long	.LASF722
	.byte	0x39
	.value	0x330
	.byte	0xf
	.long	0x3e49
	.uleb128 0x8
	.long	0x3e4e
	.uleb128 0x63
	.long	0x113
	.long	0x3e62
	.uleb128 0x1
	.long	0x3d9c
	.uleb128 0x1
	.long	0x3d9c
	.byte	0
	.uleb128 0x7
	.long	.LASF723
	.byte	0x39
	.value	0x25a
	.byte	0xc
	.long	0x113
	.long	0x3e79
	.uleb128 0x1
	.long	0x3e79
	.byte	0
	.uleb128 0x8
	.long	0x3e7e
	.uleb128 0x94
	.uleb128 0xc
	.long	.LASF724
	.byte	0x39
	.value	0x25f
	.byte	0x12
	.long	.LASF724
	.long	0x113
	.long	0x3e9b
	.uleb128 0x1
	.long	0x3e79
	.byte	0
	.uleb128 0xa
	.long	.LASF725
	.byte	0x39
	.byte	0x66
	.byte	0xf
	.long	0x3f
	.long	0x3eb1
	.uleb128 0x1
	.long	0x2e7
	.byte	0
	.uleb128 0xa
	.long	.LASF726
	.byte	0x39
	.byte	0x69
	.byte	0xc
	.long	0x113
	.long	0x3ec7
	.uleb128 0x1
	.long	0x2e7
	.byte	0
	.uleb128 0xa
	.long	.LASF727
	.byte	0x39
	.byte	0x6c
	.byte	0x11
	.long	0x32f1
	.long	0x3edd
	.uleb128 0x1
	.long	0x2e7
	.byte	0
	.uleb128 0x7
	.long	.LASF728
	.byte	0x39
	.value	0x33c
	.byte	0xe
	.long	0xa1
	.long	0x3f08
	.uleb128 0x1
	.long	0x3d9c
	.uleb128 0x1
	.long	0x3d9c
	.uleb128 0x1
	.long	0x4d
	.uleb128 0x1
	.long	0x4d
	.uleb128 0x1
	.long	0x3e3c
	.byte	0
	.uleb128 0x95
	.string	"div"
	.byte	0x39
	.value	0x35c
	.byte	0xe
	.long	0x3dca
	.long	0x3f25
	.uleb128 0x1
	.long	0x113
	.uleb128 0x1
	.long	0x113
	.byte	0
	.uleb128 0x7
	.long	.LASF729
	.byte	0x39
	.value	0x281
	.byte	0xe
	.long	0x305e
	.long	0x3f3c
	.uleb128 0x1
	.long	0x2e7
	.byte	0
	.uleb128 0x7
	.long	.LASF730
	.byte	0x39
	.value	0x35e
	.byte	0xf
	.long	0x3dfd
	.long	0x3f58
	.uleb128 0x1
	.long	0x32f1
	.uleb128 0x1
	.long	0x32f1
	.byte	0
	.uleb128 0x7
	.long	.LASF731
	.byte	0x39
	.value	0x3a2
	.byte	0xc
	.long	0x113
	.long	0x3f74
	.uleb128 0x1
	.long	0x2e7
	.uleb128 0x1
	.long	0x4d
	.byte	0
	.uleb128 0x7
	.long	.LASF732
	.byte	0x39
	.value	0x3ad
	.byte	0xf
	.long	0x4d
	.long	0x3f95
	.uleb128 0x1
	.long	0x2d7a
	.uleb128 0x1
	.long	0x2e7
	.uleb128 0x1
	.long	0x4d
	.byte	0
	.uleb128 0x7
	.long	.LASF733
	.byte	0x39
	.value	0x3a5
	.byte	0xc
	.long	0x113
	.long	0x3fb6
	.uleb128 0x1
	.long	0x2d7a
	.uleb128 0x1
	.long	0x2e7
	.uleb128 0x1
	.long	0x4d
	.byte	0
	.uleb128 0x32
	.long	.LASF735
	.byte	0x39
	.value	0x346
	.long	0x3fd7
	.uleb128 0x1
	.long	0xa1
	.uleb128 0x1
	.long	0x4d
	.uleb128 0x1
	.long	0x4d
	.uleb128 0x1
	.long	0x3e3c
	.byte	0
	.uleb128 0x96
	.long	.LASF736
	.byte	0x39
	.value	0x276
	.byte	0xd
	.long	0x3feb
	.uleb128 0x1
	.long	0x113
	.byte	0
	.uleb128 0x4e
	.long	.LASF737
	.byte	0x39
	.value	0x1c6
	.byte	0xc
	.long	0x113
	.uleb128 0x32
	.long	.LASF738
	.byte	0x39
	.value	0x1c8
	.long	0x400a
	.uleb128 0x1
	.long	0x9a
	.byte	0
	.uleb128 0xa
	.long	.LASF739
	.byte	0x39
	.byte	0x76
	.byte	0xf
	.long	0x3f
	.long	0x4025
	.uleb128 0x1
	.long	0x2e7
	.uleb128 0x1
	.long	0x4025
	.byte	0
	.uleb128 0x8
	.long	0x305e
	.uleb128 0xa
	.long	.LASF740
	.byte	0x39
	.byte	0xb1
	.byte	0x11
	.long	0x32f1
	.long	0x404a
	.uleb128 0x1
	.long	0x2e7
	.uleb128 0x1
	.long	0x4025
	.uleb128 0x1
	.long	0x113
	.byte	0
	.uleb128 0xa
	.long	.LASF741
	.byte	0x39
	.byte	0xb5
	.byte	0x1a
	.long	0x59
	.long	0x406a
	.uleb128 0x1
	.long	0x2e7
	.uleb128 0x1
	.long	0x4025
	.uleb128 0x1
	.long	0x113
	.byte	0
	.uleb128 0x7
	.long	.LASF742
	.byte	0x39
	.value	0x317
	.byte	0xc
	.long	0x113
	.long	0x4081
	.uleb128 0x1
	.long	0x2e7
	.byte	0
	.uleb128 0x7
	.long	.LASF743
	.byte	0x39
	.value	0x3b1
	.byte	0xf
	.long	0x4d
	.long	0x40a2
	.uleb128 0x1
	.long	0x305e
	.uleb128 0x1
	.long	0x2dc3
	.uleb128 0x1
	.long	0x4d
	.byte	0
	.uleb128 0x7
	.long	.LASF744
	.byte	0x39
	.value	0x3a9
	.byte	0xc
	.long	0x113
	.long	0x40be
	.uleb128 0x1
	.long	0x305e
	.uleb128 0x1
	.long	0x2d7f
	.byte	0
	.uleb128 0x7
	.long	.LASF745
	.byte	0x39
	.value	0x362
	.byte	0x1e
	.long	0x3e30
	.long	0x40da
	.uleb128 0x1
	.long	0x38ae
	.uleb128 0x1
	.long	0x38ae
	.byte	0
	.uleb128 0xa
	.long	.LASF746
	.byte	0x39
	.byte	0x71
	.byte	0x24
	.long	0x38ae
	.long	0x40f0
	.uleb128 0x1
	.long	0x2e7
	.byte	0
	.uleb128 0xa
	.long	.LASF747
	.byte	0x39
	.byte	0xc9
	.byte	0x16
	.long	0x38ae
	.long	0x4110
	.uleb128 0x1
	.long	0x2e7
	.uleb128 0x1
	.long	0x4025
	.uleb128 0x1
	.long	0x113
	.byte	0
	.uleb128 0xa
	.long	.LASF748
	.byte	0x39
	.byte	0xce
	.byte	0x1f
	.long	0x38d6
	.long	0x4130
	.uleb128 0x1
	.long	0x2e7
	.uleb128 0x1
	.long	0x4025
	.uleb128 0x1
	.long	0x113
	.byte	0
	.uleb128 0xa
	.long	.LASF749
	.byte	0x39
	.byte	0x7c
	.byte	0xe
	.long	0x38
	.long	0x414b
	.uleb128 0x1
	.long	0x2e7
	.uleb128 0x1
	.long	0x4025
	.byte	0
	.uleb128 0xa
	.long	.LASF750
	.byte	0x39
	.byte	0x7f
	.byte	0x14
	.long	0x46
	.long	0x4166
	.uleb128 0x1
	.long	0x2e7
	.uleb128 0x1
	.long	0x4025
	.byte	0
	.uleb128 0x16
	.long	.LASF751
	.byte	0x10
	.byte	0x3a
	.byte	0xa
	.byte	0x10
	.long	0x418e
	.uleb128 0x6
	.long	.LASF752
	.byte	0x3a
	.byte	0xc
	.byte	0xb
	.long	0x3a54
	.byte	0
	.uleb128 0x6
	.long	.LASF753
	.byte	0x3a
	.byte	0xd
	.byte	0xf
	.long	0x11f
	.byte	0x8
	.byte	0
	.uleb128 0x5
	.long	.LASF754
	.byte	0x3a
	.byte	0xe
	.byte	0x3
	.long	0x4166
	.uleb128 0x97
	.long	.LASF893
	.byte	0x14
	.byte	0x2b
	.byte	0xe
	.uleb128 0x51
	.long	.LASF755
	.uleb128 0x8
	.long	0x41a3
	.uleb128 0x8
	.long	0x148
	.uleb128 0x45
	.long	0x107
	.long	0x41c2
	.uleb128 0x46
	.long	0x59
	.byte	0
	.byte	0
	.uleb128 0x8
	.long	0x419a
	.uleb128 0x51
	.long	.LASF756
	.uleb128 0x8
	.long	0x41c7
	.uleb128 0x51
	.long	.LASF757
	.uleb128 0x8
	.long	0x41d1
	.uleb128 0x45
	.long	0x107
	.long	0x41eb
	.uleb128 0x46
	.long	0x59
	.byte	0x13
	.byte	0
	.uleb128 0x5
	.long	.LASF758
	.byte	0x3b
	.byte	0x54
	.byte	0x12
	.long	0x418e
	.uleb128 0x9
	.long	0x41eb
	.uleb128 0x8
	.long	0x2cf
	.uleb128 0x32
	.long	.LASF759
	.byte	0x3b
	.value	0x312
	.long	0x4213
	.uleb128 0x1
	.long	0x41fc
	.byte	0
	.uleb128 0xa
	.long	.LASF760
	.byte	0x3b
	.byte	0xb2
	.byte	0xc
	.long	0x113
	.long	0x4229
	.uleb128 0x1
	.long	0x41fc
	.byte	0
	.uleb128 0x7
	.long	.LASF761
	.byte	0x3b
	.value	0x314
	.byte	0xc
	.long	0x113
	.long	0x4240
	.uleb128 0x1
	.long	0x41fc
	.byte	0
	.uleb128 0x7
	.long	.LASF762
	.byte	0x3b
	.value	0x316
	.byte	0xc
	.long	0x113
	.long	0x4257
	.uleb128 0x1
	.long	0x41fc
	.byte	0
	.uleb128 0xa
	.long	.LASF763
	.byte	0x3b
	.byte	0xe6
	.byte	0xc
	.long	0x113
	.long	0x426d
	.uleb128 0x1
	.long	0x41fc
	.byte	0
	.uleb128 0x7
	.long	.LASF764
	.byte	0x3b
	.value	0x201
	.byte	0xc
	.long	0x113
	.long	0x4284
	.uleb128 0x1
	.long	0x41fc
	.byte	0
	.uleb128 0x7
	.long	.LASF765
	.byte	0x3b
	.value	0x2f8
	.byte	0xc
	.long	0x113
	.long	0x42a0
	.uleb128 0x1
	.long	0x41fc
	.uleb128 0x1
	.long	0x42a0
	.byte	0
	.uleb128 0x8
	.long	0x41eb
	.uleb128 0x7
	.long	.LASF766
	.byte	0x3b
	.value	0x250
	.byte	0xe
	.long	0x305e
	.long	0x42c6
	.uleb128 0x1
	.long	0x305e
	.uleb128 0x1
	.long	0x113
	.uleb128 0x1
	.long	0x41fc
	.byte	0
	.uleb128 0x7
	.long	.LASF767
	.byte	0x3b
	.value	0x102
	.byte	0xe
	.long	0x41fc
	.long	0x42e2
	.uleb128 0x1
	.long	0x2e7
	.uleb128 0x1
	.long	0x2e7
	.byte	0
	.uleb128 0x7
	.long	.LASF768
	.byte	0x3b
	.value	0x2a3
	.byte	0xf
	.long	0x4d
	.long	0x4308
	.uleb128 0x1
	.long	0xa1
	.uleb128 0x1
	.long	0x4d
	.uleb128 0x1
	.long	0x4d
	.uleb128 0x1
	.long	0x41fc
	.byte	0
	.uleb128 0x7
	.long	.LASF769
	.byte	0x3b
	.value	0x109
	.byte	0xe
	.long	0x41fc
	.long	0x4329
	.uleb128 0x1
	.long	0x2e7
	.uleb128 0x1
	.long	0x2e7
	.uleb128 0x1
	.long	0x41fc
	.byte	0
	.uleb128 0x7
	.long	.LASF770
	.byte	0x3b
	.value	0x2c9
	.byte	0xc
	.long	0x113
	.long	0x434a
	.uleb128 0x1
	.long	0x41fc
	.uleb128 0x1
	.long	0x32f1
	.uleb128 0x1
	.long	0x113
	.byte	0
	.uleb128 0x7
	.long	.LASF771
	.byte	0x3b
	.value	0x2fd
	.byte	0xc
	.long	0x113
	.long	0x4366
	.uleb128 0x1
	.long	0x41fc
	.uleb128 0x1
	.long	0x4366
	.byte	0
	.uleb128 0x8
	.long	0x41f7
	.uleb128 0x7
	.long	.LASF772
	.byte	0x3b
	.value	0x2ce
	.byte	0x11
	.long	0x32f1
	.long	0x4382
	.uleb128 0x1
	.long	0x41fc
	.byte	0
	.uleb128 0x7
	.long	.LASF773
	.byte	0x3b
	.value	0x202
	.byte	0xc
	.long	0x113
	.long	0x4399
	.uleb128 0x1
	.long	0x41fc
	.byte	0
	.uleb128 0x4e
	.long	.LASF774
	.byte	0x3b
	.value	0x208
	.byte	0xc
	.long	0x113
	.uleb128 0x32
	.long	.LASF775
	.byte	0x3b
	.value	0x324
	.long	0x43b8
	.uleb128 0x1
	.long	0x2e7
	.byte	0
	.uleb128 0xa
	.long	.LASF776
	.byte	0x3b
	.byte	0x98
	.byte	0xc
	.long	0x113
	.long	0x43ce
	.uleb128 0x1
	.long	0x2e7
	.byte	0
	.uleb128 0xa
	.long	.LASF777
	.byte	0x3b
	.byte	0x9a
	.byte	0xc
	.long	0x113
	.long	0x43e9
	.uleb128 0x1
	.long	0x2e7
	.uleb128 0x1
	.long	0x2e7
	.byte	0
	.uleb128 0x32
	.long	.LASF778
	.byte	0x3b
	.value	0x2d3
	.long	0x43fb
	.uleb128 0x1
	.long	0x41fc
	.byte	0
	.uleb128 0x32
	.long	.LASF779
	.byte	0x3b
	.value	0x148
	.long	0x4412
	.uleb128 0x1
	.long	0x41fc
	.uleb128 0x1
	.long	0x305e
	.byte	0
	.uleb128 0x7
	.long	.LASF780
	.byte	0x3b
	.value	0x14c
	.byte	0xc
	.long	0x113
	.long	0x4438
	.uleb128 0x1
	.long	0x41fc
	.uleb128 0x1
	.long	0x305e
	.uleb128 0x1
	.long	0x113
	.uleb128 0x1
	.long	0x4d
	.byte	0
	.uleb128 0x4f
	.long	.LASF781
	.byte	0x3b
	.byte	0xbc
	.byte	0xe
	.long	0x41fc
	.uleb128 0xa
	.long	.LASF782
	.byte	0x3b
	.byte	0xcd
	.byte	0xe
	.long	0x305e
	.long	0x445a
	.uleb128 0x1
	.long	0x305e
	.byte	0
	.uleb128 0x7
	.long	.LASF783
	.byte	0x3b
	.value	0x29c
	.byte	0xc
	.long	0x113
	.long	0x4476
	.uleb128 0x1
	.long	0x113
	.uleb128 0x1
	.long	0x41fc
	.byte	0
	.uleb128 0x8
	.long	0xdcb
	.uleb128 0x9
	.long	0x4476
	.uleb128 0xb
	.long	0xe53
	.uleb128 0xb
	.long	0xdcb
	.uleb128 0x5
	.long	.LASF784
	.byte	0x3c
	.byte	0x26
	.byte	0x1b
	.long	0x59
	.uleb128 0x5
	.long	.LASF785
	.byte	0x3d
	.byte	0x30
	.byte	0x1a
	.long	0x44a2
	.uleb128 0x8
	.long	0x39b3
	.uleb128 0xa
	.long	.LASF786
	.byte	0x3c
	.byte	0x9f
	.byte	0xc
	.long	0x113
	.long	0x44c2
	.uleb128 0x1
	.long	0xa3
	.uleb128 0x1
	.long	0x448a
	.byte	0
	.uleb128 0xa
	.long	.LASF787
	.byte	0x3d
	.byte	0x37
	.byte	0xf
	.long	0xa3
	.long	0x44dd
	.uleb128 0x1
	.long	0xa3
	.uleb128 0x1
	.long	0x4496
	.byte	0
	.uleb128 0xa
	.long	.LASF788
	.byte	0x3d
	.byte	0x34
	.byte	0x12
	.long	0x4496
	.long	0x44f3
	.uleb128 0x1
	.long	0x2e7
	.byte	0
	.uleb128 0xa
	.long	.LASF789
	.byte	0x3c
	.byte	0x9b
	.byte	0x11
	.long	0x448a
	.long	0x4509
	.uleb128 0x1
	.long	0x2e7
	.byte	0
	.uleb128 0xb
	.long	0x11a
	.uleb128 0xb
	.long	0xe91
	.uleb128 0x98
	.long	0xfa9
	.uleb128 0x9
	.byte	0x3
	.quad	_ZStL8__ioinit
	.uleb128 0xb
	.long	0x60
	.uleb128 0x3e
	.long	.LASF790
	.byte	0x3e
	.byte	0xf
	.byte	0xb
	.long	0x4670
	.uleb128 0x99
	.long	.LASF894
	.byte	0x3e
	.byte	0x11
	.byte	0xb
	.uleb128 0x9a
	.string	"v1"
	.byte	0x3e
	.byte	0x13
	.byte	0x12
	.uleb128 0x27
	.long	.LASF791
	.byte	0x1
	.byte	0x3e
	.byte	0x17
	.byte	0x7
	.long	0x457d
	.uleb128 0x21
	.long	.LASF792
	.byte	0x1c
	.long	.LASF794
	.long	0x635
	.uleb128 0x21
	.long	.LASF793
	.byte	0x21
	.long	.LASF795
	.long	0x635
	.uleb128 0x21
	.long	.LASF796
	.byte	0x26
	.long	.LASF797
	.long	0x635
	.byte	0
	.uleb128 0x9
	.long	0x4545
	.uleb128 0x27
	.long	.LASF798
	.byte	0x1
	.byte	0x3e
	.byte	0x2d
	.byte	0x7
	.long	0x45ba
	.uleb128 0x21
	.long	.LASF792
	.byte	0x32
	.long	.LASF799
	.long	0x635
	.uleb128 0x21
	.long	.LASF793
	.byte	0x37
	.long	.LASF800
	.long	0x635
	.uleb128 0x21
	.long	.LASF796
	.byte	0x3c
	.long	.LASF801
	.long	0xb9f
	.byte	0
	.uleb128 0x9
	.long	0x4582
	.uleb128 0x27
	.long	.LASF802
	.byte	0x1
	.byte	0x3e
	.byte	0x43
	.byte	0x7
	.long	0x45f7
	.uleb128 0x21
	.long	.LASF792
	.byte	0x48
	.long	.LASF803
	.long	0xb9f
	.uleb128 0x21
	.long	.LASF793
	.byte	0x4d
	.long	.LASF804
	.long	0xb9f
	.uleb128 0x21
	.long	.LASF796
	.byte	0x52
	.long	.LASF805
	.long	0xb9f
	.byte	0
	.uleb128 0x9
	.long	0x45bf
	.uleb128 0x27
	.long	.LASF806
	.byte	0x1
	.byte	0x3e
	.byte	0x58
	.byte	0x7
	.long	0x4634
	.uleb128 0x21
	.long	.LASF792
	.byte	0x5d
	.long	.LASF807
	.long	0xb9f
	.uleb128 0x21
	.long	.LASF793
	.byte	0x62
	.long	.LASF808
	.long	0xb9f
	.uleb128 0x21
	.long	.LASF796
	.byte	0x67
	.long	.LASF809
	.long	0x635
	.byte	0
	.uleb128 0x9
	.long	0x45fc
	.uleb128 0x64
	.string	"seq"
	.byte	0x6e
	.byte	0x1c
	.long	0x457d
	.byte	0x1
	.byte	0
	.uleb128 0x64
	.string	"par"
	.byte	0x6f
	.byte	0x1b
	.long	0x45ba
	.byte	0x1
	.byte	0
	.uleb128 0x65
	.long	.LASF810
	.byte	0x70
	.byte	0x27
	.long	0x45f7
	.byte	0x1
	.byte	0
	.uleb128 0x65
	.long	.LASF811
	.byte	0x71
	.byte	0x1e
	.long	0x4634
	.byte	0x1
	.byte	0
	.byte	0
	.byte	0
	.byte	0
	.uleb128 0x42
	.long	0x4639
	.uleb128 0x42
	.long	0x4646
	.uleb128 0x42
	.long	0x4653
	.uleb128 0x42
	.long	0x4660
	.uleb128 0x4f
	.long	.LASF812
	.byte	0x3f
	.byte	0x48
	.byte	0x10
	.long	0x3d90
	.uleb128 0xa
	.long	.LASF813
	.byte	0x3f
	.byte	0x4f
	.byte	0xf
	.long	0x3f
	.long	0x46ab
	.uleb128 0x1
	.long	0x3d57
	.uleb128 0x1
	.long	0x3d57
	.byte	0
	.uleb128 0xa
	.long	.LASF814
	.byte	0x3f
	.byte	0x53
	.byte	0xf
	.long	0x3d57
	.long	0x46c1
	.uleb128 0x1
	.long	0x46c1
	.byte	0
	.uleb128 0x8
	.long	0x3115
	.uleb128 0xa
	.long	.LASF815
	.byte	0x3f
	.byte	0x4c
	.byte	0xf
	.long	0x3d57
	.long	0x46dc
	.uleb128 0x1
	.long	0x46dc
	.byte	0
	.uleb128 0x8
	.long	0x3d57
	.uleb128 0xa
	.long	.LASF816
	.byte	0x3f
	.byte	0xb3
	.byte	0xe
	.long	0x305e
	.long	0x46f7
	.uleb128 0x1
	.long	0x3110
	.byte	0
	.uleb128 0xa
	.long	.LASF817
	.byte	0x3f
	.byte	0xb7
	.byte	0xe
	.long	0x305e
	.long	0x470d
	.uleb128 0x1
	.long	0x470d
	.byte	0
	.uleb128 0x8
	.long	0x3d63
	.uleb128 0xa
	.long	.LASF818
	.byte	0x3f
	.byte	0x84
	.byte	0x13
	.long	0x46c1
	.long	0x4728
	.uleb128 0x1
	.long	0x470d
	.byte	0
	.uleb128 0xa
	.long	.LASF819
	.byte	0x3f
	.byte	0x88
	.byte	0x13
	.long	0x46c1
	.long	0x473e
	.uleb128 0x1
	.long	0x470d
	.byte	0
	.uleb128 0x7
	.long	.LASF820
	.byte	0x3f
	.value	0x173
	.byte	0xc
	.long	0x113
	.long	0x475a
	.uleb128 0x1
	.long	0x475a
	.uleb128 0x1
	.long	0x113
	.byte	0
	.uleb128 0x8
	.long	0x3d68
	.uleb128 0x8
	.long	0x1123
	.uleb128 0x9
	.long	0x475f
	.uleb128 0xb
	.long	0x13d1
	.uleb128 0xb
	.long	0x1123
	.uleb128 0x8
	.long	0x13d1
	.uleb128 0x9
	.long	0x4773
	.uleb128 0xb
	.long	0x11df
	.uleb128 0xb
	.long	0x32f8
	.uleb128 0xb
	.long	0x1410
	.uleb128 0x8
	.long	0x145a
	.uleb128 0xb
	.long	0x14af
	.uleb128 0x8
	.long	0x155c
	.uleb128 0x9
	.long	0x4796
	.uleb128 0xb
	.long	0x145a
	.uleb128 0x8
	.long	0x35d5
	.uleb128 0x9
	.long	0x47a5
	.uleb128 0xb
	.long	0x3752
	.uleb128 0x8
	.long	0x113
	.uleb128 0x9
	.long	0x47b4
	.uleb128 0x8
	.long	0x3752
	.uleb128 0x9
	.long	0x47be
	.uleb128 0xb
	.long	0x113
	.uleb128 0x8
	.long	0x171c
	.uleb128 0x9
	.long	0x47cd
	.uleb128 0xb
	.long	0x17ac
	.uleb128 0xb
	.long	0x171c
	.uleb128 0xb
	.long	0x17ec
	.uleb128 0xb
	.long	0x17f9
	.uleb128 0xb
	.long	0x3804
	.uleb128 0xb
	.long	0x3810
	.uleb128 0x8
	.long	0x18bc
	.uleb128 0x9
	.long	0x47f5
	.uleb128 0x2b
	.long	0x18bc
	.uleb128 0xb
	.long	0x1965
	.uleb128 0xb
	.long	0x18bc
	.uleb128 0x8
	.long	0x1976
	.uleb128 0x9
	.long	0x480e
	.uleb128 0xb
	.long	0x1a4e
	.uleb128 0x2b
	.long	0x1976
	.uleb128 0x2b
	.long	0x1a42
	.uleb128 0xb
	.long	0x1a42
	.uleb128 0x8
	.long	0x18af
	.uleb128 0x9
	.long	0x482c
	.uleb128 0x8
	.long	0x1c78
	.uleb128 0xb
	.long	0x1a9e
	.uleb128 0x2b
	.long	0x18af
	.uleb128 0xb
	.long	0x1d4a
	.uleb128 0x8
	.long	0x1c7d
	.uleb128 0x9
	.long	0x484a
	.uleb128 0xb
	.long	0x1df9
	.uleb128 0xb
	.long	0x1e64
	.uleb128 0xb
	.long	0x286b
	.uleb128 0x2b
	.long	0x1c7d
	.uleb128 0xb
	.long	0x1c7d
	.uleb128 0x8
	.long	0x286b
	.uleb128 0x2b
	.long	0x1e58
	.uleb128 0xb
	.long	0x1d57
	.uleb128 0x8
	.long	0x2870
	.uleb128 0x8
	.long	0x2960
	.uleb128 0x9b
	.long	.LASF835
	.long	0xa1
	.uleb128 0x66
	.long	0xdf3
	.long	.LASF821
	.long	0x48a1
	.long	0x48ab
	.uleb128 0x12
	.long	.LASF823
	.long	0x447b
	.byte	0
	.uleb128 0x66
	.long	0xdda
	.long	.LASF822
	.long	0x48bc
	.long	0x48c6
	.uleb128 0x12
	.long	.LASF823
	.long	0x447b
	.byte	0
	.uleb128 0x8
	.long	0xe91
	.uleb128 0x9
	.long	0x48c6
	.uleb128 0xb
	.long	0xf2e
	.uleb128 0x8
	.long	0xf25
	.uleb128 0x41
	.long	.LASF824
	.byte	0x1
	.byte	0x87
	.byte	0x6
	.long	.LASF825
	.long	0x48f5
	.uleb128 0x1
	.long	0xa1
	.uleb128 0x1
	.long	0x641
	.byte	0
	.uleb128 0x1a
	.long	.LASF826
	.byte	0x1
	.byte	0x7e
	.byte	0x1a
	.long	.LASF827
	.long	0xa1
	.long	0x490f
	.uleb128 0x1
	.long	0x641
	.byte	0
	.uleb128 0x9c
	.long	.LASF895
	.quad	.LFB4114
	.quad	.LFE4114-.LFB4114
	.uleb128 0x1
	.byte	0x9c
	.uleb128 0x9d
	.long	.LASF896
	.quad	.LFB4113
	.quad	.LFE4113-.LFB4113
	.uleb128 0x1
	.byte	0x9c
	.long	0x4962
	.uleb128 0x33
	.long	.LASF828
	.byte	0x4
	.byte	0x51
	.byte	0x1
	.long	0x113
	.uleb128 0x2
	.byte	0x91
	.sleb128 -20
	.uleb128 0x33
	.long	.LASF829
	.byte	0x4
	.byte	0x51
	.byte	0x1
	.long	0x113
	.uleb128 0x2
	.byte	0x91
	.sleb128 -24
	.byte	0
	.uleb128 0x34
	.long	0x29e4
	.quad	.LFB4112
	.quad	.LFE4112-.LFB4112
	.uleb128 0x1
	.byte	0x9c
	.long	0x49d0
	.uleb128 0x4
	.long	.LASF126
	.long	0x47b4
	.uleb128 0xd
	.string	"_Tp"
	.long	0x113
	.uleb128 0x13
	.long	.LASF830
	.byte	0x2
	.value	0x397
	.byte	0x20
	.long	0x47b4
	.uleb128 0x2
	.byte	0x91
	.sleb128 -40
	.uleb128 0x13
	.long	.LASF831
	.byte	0x2
	.value	0x397
	.byte	0x3a
	.long	0x47b4
	.uleb128 0x2
	.byte	0x91
	.sleb128 -48
	.uleb128 0x13
	.long	.LASF18
	.byte	0x2
	.value	0x398
	.byte	0x13
	.long	0x4509
	.uleb128 0x2
	.byte	0x91
	.sleb128 -56
	.uleb128 0x43
	.long	.LASF833
	.byte	0x2
	.value	0x39a
	.byte	0x11
	.long	0x11a
	.uleb128 0x2
	.byte	0x91
	.sleb128 -20
	.byte	0
	.uleb128 0x15
	.long	0x2a17
	.quad	.LFB4111
	.quad	.LFE4111-.LFB4111
	.uleb128 0x1
	.byte	0x9c
	.long	0x4a2e
	.uleb128 0x4
	.long	.LASF471
	.long	0x47b4
	.uleb128 0xd
	.string	"_Tp"
	.long	0x113
	.uleb128 0x13
	.long	.LASF830
	.byte	0x2
	.value	0x3c8
	.byte	0x14
	.long	0x47b4
	.uleb128 0x2
	.byte	0x91
	.sleb128 -24
	.uleb128 0x13
	.long	.LASF831
	.byte	0x2
	.value	0x3c8
	.byte	0x23
	.long	0x47b4
	.uleb128 0x2
	.byte	0x91
	.sleb128 -32
	.uleb128 0x13
	.long	.LASF18
	.byte	0x2
	.value	0x3c8
	.byte	0x36
	.long	0x4509
	.uleb128 0x2
	.byte	0x91
	.sleb128 -40
	.byte	0
	.uleb128 0x15
	.long	0x2a4a
	.quad	.LFB4108
	.quad	.LFE4108-.LFB4108
	.uleb128 0x1
	.byte	0x9c
	.long	0x4a9d
	.uleb128 0x4
	.long	.LASF474
	.long	0x47b4
	.uleb128 0x4
	.long	.LASF152
	.long	0x59
	.uleb128 0xd
	.string	"_Tp"
	.long	0x113
	.uleb128 0x13
	.long	.LASF830
	.byte	0x2
	.value	0x455
	.byte	0x20
	.long	0x47b4
	.uleb128 0x2
	.byte	0x91
	.sleb128 -24
	.uleb128 0xf
	.string	"__n"
	.byte	0x2
	.value	0x455
	.byte	0x2f
	.long	0x59
	.uleb128 0x2
	.byte	0x91
	.sleb128 -32
	.uleb128 0x13
	.long	.LASF18
	.byte	0x2
	.value	0x455
	.byte	0x3f
	.long	0x4509
	.uleb128 0x2
	.byte	0x91
	.sleb128 -40
	.uleb128 0x26
	.long	0x8a4
	.uleb128 0x2
	.byte	0x91
	.sleb128 0
	.byte	0
	.uleb128 0xb
	.long	0x47b9
	.uleb128 0x34
	.long	0x2a8f
	.quad	.LFB4107
	.quad	.LFE4107-.LFB4107
	.uleb128 0x1
	.byte	0x9c
	.long	0x4acf
	.uleb128 0x4
	.long	.LASF477
	.long	0x47b4
	.uleb128 0x26
	.long	0x4a9d
	.uleb128 0x2
	.byte	0x91
	.sleb128 -24
	.byte	0
	.uleb128 0x15
	.long	0x2ab2
	.quad	.LFB4094
	.quad	.LFE4094-.LFB4094
	.uleb128 0x1
	.byte	0x9c
	.long	0x4b36
	.uleb128 0xd
	.string	"_OI"
	.long	0x47b4
	.uleb128 0x4
	.long	.LASF152
	.long	0x59
	.uleb128 0xd
	.string	"_Tp"
	.long	0x113
	.uleb128 0x13
	.long	.LASF830
	.byte	0x2
	.value	0x478
	.byte	0x10
	.long	0x47b4
	.uleb128 0x2
	.byte	0x91
	.sleb128 -24
	.uleb128 0xf
	.string	"__n"
	.byte	0x2
	.value	0x478
	.byte	0x1f
	.long	0x59
	.uleb128 0x2
	.byte	0x91
	.sleb128 -32
	.uleb128 0x13
	.long	.LASF18
	.byte	0x2
	.value	0x478
	.byte	0x2f
	.long	0x4509
	.uleb128 0x2
	.byte	0x91
	.sleb128 -40
	.byte	0
	.uleb128 0x15
	.long	0x2af2
	.quad	.LFB4093
	.quad	.LFE4093-.LFB4093
	.uleb128 0x1
	.byte	0x9c
	.long	0x4b74
	.uleb128 0xd
	.string	"_Tp"
	.long	0x113
	.uleb128 0x62
	.long	.LASF834
	.uleb128 0x1c
	.string	"__p"
	.byte	0xa
	.byte	0x6d
	.byte	0x15
	.long	0x47b4
	.uleb128 0x2
	.byte	0x91
	.sleb128 -24
	.uleb128 0x9e
	.byte	0xa
	.byte	0x6d
	.byte	0x21
	.byte	0
	.uleb128 0x29
	.long	0x36b2
	.long	0x4b93
	.quad	.LFB4092
	.quad	.LFE4092-.LFB4092
	.uleb128 0x1
	.byte	0x9c
	.long	0x4bc7
	.uleb128 0x20
	.long	.LASF823
	.long	0x47aa
	.uleb128 0x2
	.byte	0x91
	.sleb128 -24
	.uleb128 0x1c
	.string	"__n"
	.byte	0x7
	.byte	0x67
	.byte	0x1a
	.long	0x36db
	.uleb128 0x2
	.byte	0x91
	.sleb128 -32
	.uleb128 0x26
	.long	0x3d9c
	.uleb128 0x2
	.byte	0x91
	.sleb128 -40
	.uleb128 0x9f
	.uleb128 0xa0
	.long	.LASF836
	.byte	0x7
	.byte	0x7b
	.byte	0x17
	.long	0x54b
	.byte	0
	.byte	0
	.uleb128 0x3a
	.long	0x372a
	.long	0x4be6
	.quad	.LFB4091
	.quad	.LFE4091-.LFB4091
	.uleb128 0x1
	.byte	0x9c
	.long	0x4bf3
	.uleb128 0x20
	.long	.LASF823
	.long	0x47c3
	.uleb128 0x2
	.byte	0x91
	.sleb128 -24
	.byte	0
	.uleb128 0x15
	.long	0xfc2
	.quad	.LFB4066
	.quad	.LFE4066-.LFB4066
	.uleb128 0x1
	.byte	0x9c
	.long	0x4c57
	.uleb128 0x4
	.long	.LASF126
	.long	0x47b4
	.uleb128 0x4
	.long	.LASF152
	.long	0x59
	.uleb128 0xd
	.string	"_Tp"
	.long	0x113
	.uleb128 0x33
	.long	.LASF830
	.byte	0x9
	.byte	0xfd
	.byte	0x2a
	.long	0x47b4
	.uleb128 0x2
	.byte	0x91
	.sleb128 -24
	.uleb128 0x1c
	.string	"__n"
	.byte	0x9
	.byte	0xfd
	.byte	0x39
	.long	0x59
	.uleb128 0x2
	.byte	0x91
	.sleb128 -32
	.uleb128 0x1c
	.string	"__x"
	.byte	0x9
	.byte	0xfe
	.byte	0xf
	.long	0x4509
	.uleb128 0x2
	.byte	0x91
	.sleb128 -40
	.byte	0
	.uleb128 0x15
	.long	0x1019
	.quad	.LFB4064
	.quad	.LFE4064-.LFB4064
	.uleb128 0x1
	.byte	0x9c
	.long	0x4cc7
	.uleb128 0x4
	.long	.LASF126
	.long	0x47b4
	.uleb128 0x4
	.long	.LASF152
	.long	0x59
	.uleb128 0x13
	.long	.LASF830
	.byte	0x9
	.value	0x253
	.byte	0x2d
	.long	0x47b4
	.uleb128 0x2
	.byte	0x91
	.sleb128 -40
	.uleb128 0xf
	.string	"__n"
	.byte	0x9
	.value	0x253
	.byte	0x3c
	.long	0x59
	.uleb128 0x2
	.byte	0x91
	.sleb128 -48
	.uleb128 0x52
	.quad	.LBB20
	.quad	.LBE20-.LBB20
	.uleb128 0x43
	.long	.LASF837
	.byte	0x9
	.value	0x257
	.byte	0x40
	.long	0x4cc7
	.uleb128 0x2
	.byte	0x91
	.sleb128 -24
	.byte	0
	.byte	0
	.uleb128 0x8
	.long	0x29ad
	.uleb128 0x34
	.long	0x2b16
	.quad	.LFB4065
	.quad	.LFE4065-.LFB4065
	.uleb128 0x1
	.byte	0x9c
	.long	0x4d00
	.uleb128 0xd
	.string	"_Tp"
	.long	0x113
	.uleb128 0x1c
	.string	"__r"
	.byte	0xb
	.byte	0x31
	.byte	0x16
	.long	0x47c8
	.uleb128 0x2
	.byte	0x91
	.sleb128 -24
	.byte	0
	.uleb128 0x29
	.long	0x36e7
	.long	0x4d1f
	.quad	.LFB4063
	.quad	.LFE4063-.LFB4063
	.uleb128 0x1
	.byte	0x9c
	.long	0x4d4a
	.uleb128 0x20
	.long	.LASF823
	.long	0x47aa
	.uleb128 0x2
	.byte	0x91
	.sleb128 -24
	.uleb128 0x1c
	.string	"__p"
	.byte	0x7
	.byte	0x84
	.byte	0x17
	.long	0x47b4
	.uleb128 0x2
	.byte	0x91
	.sleb128 -32
	.uleb128 0x1c
	.string	"__t"
	.byte	0x7
	.byte	0x84
	.byte	0x26
	.long	0x36db
	.uleb128 0x2
	.byte	0x91
	.sleb128 -40
	.byte	0
	.uleb128 0x15
	.long	0x17cc
	.quad	.LFB4062
	.quad	.LFE4062-.LFB4062
	.uleb128 0x1
	.byte	0x9c
	.long	0x4d86
	.uleb128 0xf
	.string	"__a"
	.byte	0x8
	.value	0x1cf
	.byte	0x20
	.long	0x47e1
	.uleb128 0x2
	.byte	0x91
	.sleb128 -24
	.uleb128 0xf
	.string	"__n"
	.byte	0x8
	.value	0x1cf
	.byte	0x2f
	.long	0x17fe
	.uleb128 0x2
	.byte	0x91
	.sleb128 -32
	.byte	0
	.uleb128 0x29
	.long	0x370b
	.long	0x4da5
	.quad	.LFB4061
	.quad	.LFE4061-.LFB4061
	.uleb128 0x1
	.byte	0x9c
	.long	0x4db2
	.uleb128 0x20
	.long	.LASF823
	.long	0x47c3
	.uleb128 0x2
	.byte	0x91
	.sleb128 -24
	.byte	0
	.uleb128 0x15
	.long	0x2b39
	.quad	.LFB4016
	.quad	.LFE4016-.LFB4016
	.uleb128 0x1
	.byte	0x9c
	.long	0x4e27
	.uleb128 0x4
	.long	.LASF126
	.long	0x47b4
	.uleb128 0x4
	.long	.LASF152
	.long	0x59
	.uleb128 0xd
	.string	"_Tp"
	.long	0x113
	.uleb128 0x13
	.long	.LASF830
	.byte	0x9
	.value	0x111
	.byte	0x2b
	.long	0x47b4
	.uleb128 0x2
	.byte	0x91
	.sleb128 -40
	.uleb128 0xf
	.string	"__n"
	.byte	0x9
	.value	0x111
	.byte	0x3a
	.long	0x59
	.uleb128 0x2
	.byte	0x91
	.sleb128 -48
	.uleb128 0xf
	.string	"__x"
	.byte	0x9
	.value	0x111
	.byte	0x4a
	.long	0x4509
	.uleb128 0x2
	.byte	0x91
	.sleb128 -56
	.uleb128 0x67
	.long	.LASF838
	.value	0x125
	.long	0x38ea
	.uleb128 0x2
	.byte	0x91
	.sleb128 -17
	.byte	0
	.uleb128 0x34
	.long	0xbb8
	.quad	.LFB4015
	.quad	.LFE4015-.LFB4015
	.uleb128 0x1
	.byte	0x9c
	.long	0x4e5c
	.uleb128 0x4
	.long	.LASF126
	.long	0x47b4
	.uleb128 0x26
	.long	0x47b4
	.uleb128 0x2
	.byte	0x91
	.sleb128 -24
	.uleb128 0x26
	.long	0x47b4
	.uleb128 0x2
	.byte	0x91
	.sleb128 -32
	.byte	0
	.uleb128 0x15
	.long	0x2b79
	.quad	.LFB4014
	.quad	.LFE4014-.LFB4014
	.uleb128 0x1
	.byte	0x9c
	.long	0x4eb8
	.uleb128 0x4
	.long	.LASF126
	.long	0x47b4
	.uleb128 0x4
	.long	.LASF152
	.long	0x59
	.uleb128 0x13
	.long	.LASF830
	.byte	0x9
	.value	0x276
	.byte	0x30
	.long	0x47b4
	.uleb128 0x2
	.byte	0x91
	.sleb128 -40
	.uleb128 0xf
	.string	"__n"
	.byte	0x9
	.value	0x276
	.byte	0x3f
	.long	0x59
	.uleb128 0x2
	.byte	0x91
	.sleb128 -48
	.uleb128 0x67
	.long	.LASF838
	.value	0x27b
	.long	0x38ea
	.uleb128 0x2
	.byte	0x91
	.sleb128 -17
	.byte	0
	.uleb128 0x15
	.long	0x183d
	.quad	.LFB4013
	.quad	.LFE4013-.LFB4013
	.uleb128 0x1
	.byte	0x9c
	.long	0x4f04
	.uleb128 0xf
	.string	"__a"
	.byte	0x8
	.value	0x1ef
	.byte	0x22
	.long	0x47e1
	.uleb128 0x2
	.byte	0x91
	.sleb128 -24
	.uleb128 0xf
	.string	"__p"
	.byte	0x8
	.value	0x1ef
	.byte	0x2f
	.long	0x17bf
	.uleb128 0x2
	.byte	0x91
	.sleb128 -32
	.uleb128 0xf
	.string	"__n"
	.byte	0x8
	.value	0x1ef
	.byte	0x3e
	.long	0x17fe
	.uleb128 0x2
	.byte	0x91
	.sleb128 -40
	.byte	0
	.uleb128 0x29
	.long	0x1bfb
	.long	0x4f23
	.quad	.LFB4012
	.quad	.LFE4012-.LFB4012
	.uleb128 0x1
	.byte	0x9c
	.long	0x4f40
	.uleb128 0x20
	.long	.LASF823
	.long	0x4831
	.uleb128 0x2
	.byte	0x91
	.sleb128 -24
	.uleb128 0xf
	.string	"__n"
	.byte	0x6
	.value	0x157
	.byte	0x1a
	.long	0x641
	.uleb128 0x2
	.byte	0x91
	.sleb128 -32
	.byte	0
	.uleb128 0x1e
	.long	0x18f0
	.long	0x4f4d
	.long	0x4f57
	.uleb128 0x12
	.long	.LASF823
	.long	0x47fa
	.byte	0
	.uleb128 0x3b
	.long	0x4f40
	.long	.LASF839
	.long	0x4f7a
	.quad	.LFB4010
	.quad	.LFE4010-.LFB4010
	.uleb128 0x1
	.byte	0x9c
	.long	0x4f83
	.uleb128 0x10
	.long	0x4f4d
	.uleb128 0x2
	.byte	0x91
	.sleb128 -24
	.byte	0
	.uleb128 0x1e
	.long	0x35fc
	.long	0x4f90
	.long	0x4f9f
	.uleb128 0x12
	.long	.LASF823
	.long	0x47aa
	.uleb128 0x1
	.long	0x47af
	.byte	0
	.uleb128 0x3b
	.long	0x4f83
	.long	.LASF840
	.long	0x4fc2
	.quad	.LFB4007
	.quad	.LFE4007-.LFB4007
	.uleb128 0x1
	.byte	0x9c
	.long	0x4fd3
	.uleb128 0x10
	.long	0x4f90
	.uleb128 0x2
	.byte	0x91
	.sleb128 -24
	.uleb128 0x10
	.long	0x4f99
	.uleb128 0x2
	.byte	0x91
	.sleb128 -32
	.byte	0
	.uleb128 0x15
	.long	0x185e
	.quad	.LFB4005
	.quad	.LFE4005-.LFB4005
	.uleb128 0x1
	.byte	0x9c
	.long	0x4fff
	.uleb128 0xf
	.string	"__a"
	.byte	0x8
	.value	0x223
	.byte	0x26
	.long	0x47e6
	.uleb128 0x2
	.byte	0x91
	.sleb128 -24
	.byte	0
	.uleb128 0x15
	.long	0x2bab
	.quad	.LFB3958
	.quad	.LFE3958-.LFB3958
	.uleb128 0x1
	.byte	0x9c
	.long	0x5077
	.uleb128 0x4
	.long	.LASF126
	.long	0x47b4
	.uleb128 0x4
	.long	.LASF152
	.long	0x59
	.uleb128 0xd
	.string	"_Tp"
	.long	0x113
	.uleb128 0x4
	.long	.LASF491
	.long	0x113
	.uleb128 0x13
	.long	.LASF830
	.byte	0x9
	.value	0x198
	.byte	0x2f
	.long	0x47b4
	.uleb128 0x2
	.byte	0x91
	.sleb128 -24
	.uleb128 0xf
	.string	"__n"
	.byte	0x9
	.value	0x198
	.byte	0x3e
	.long	0x59
	.uleb128 0x2
	.byte	0x91
	.sleb128 -32
	.uleb128 0xf
	.string	"__x"
	.byte	0x9
	.value	0x199
	.byte	0x14
	.long	0x4509
	.uleb128 0x2
	.byte	0x91
	.sleb128 -40
	.uleb128 0x26
	.long	0x47dc
	.uleb128 0x2
	.byte	0x91
	.sleb128 -48
	.byte	0
	.uleb128 0x15
	.long	0x2bf9
	.quad	.LFB3956
	.quad	.LFE3956-.LFB3956
	.uleb128 0x1
	.byte	0x9c
	.long	0x50ba
	.uleb128 0x4
	.long	.LASF126
	.long	0x47b4
	.uleb128 0x33
	.long	.LASF830
	.byte	0xa
	.byte	0xb6
	.byte	0x1f
	.long	0x47b4
	.uleb128 0x2
	.byte	0x91
	.sleb128 -24
	.uleb128 0x33
	.long	.LASF831
	.byte	0xa
	.byte	0xb6
	.byte	0x39
	.long	0x47b4
	.uleb128 0x2
	.byte	0x91
	.sleb128 -32
	.byte	0
	.uleb128 0x15
	.long	0x2c1d
	.quad	.LFB3955
	.quad	.LFE3955-.LFB3955
	.uleb128 0x1
	.byte	0x9c
	.long	0x5119
	.uleb128 0x4
	.long	.LASF126
	.long	0x47b4
	.uleb128 0x4
	.long	.LASF152
	.long	0x59
	.uleb128 0xd
	.string	"_Tp"
	.long	0x113
	.uleb128 0x13
	.long	.LASF830
	.byte	0x9
	.value	0x2be
	.byte	0x32
	.long	0x47b4
	.uleb128 0x2
	.byte	0x91
	.sleb128 -24
	.uleb128 0xf
	.string	"__n"
	.byte	0x9
	.value	0x2be
	.byte	0x41
	.long	0x59
	.uleb128 0x2
	.byte	0x91
	.sleb128 -32
	.uleb128 0x26
	.long	0x47dc
	.uleb128 0x2
	.byte	0x91
	.sleb128 -40
	.byte	0
	.uleb128 0x29
	.long	0x1c1f
	.long	0x5138
	.quad	.LFB3954
	.quad	.LFE3954-.LFB3954
	.uleb128 0x1
	.byte	0x9c
	.long	0x5165
	.uleb128 0x20
	.long	.LASF823
	.long	0x4831
	.uleb128 0x2
	.byte	0x91
	.sleb128 -24
	.uleb128 0xf
	.string	"__p"
	.byte	0x6
	.value	0x15e
	.byte	0x1d
	.long	0x196a
	.uleb128 0x2
	.byte	0x91
	.sleb128 -32
	.uleb128 0xf
	.string	"__n"
	.byte	0x6
	.value	0x15e
	.byte	0x29
	.long	0x641
	.uleb128 0x2
	.byte	0x91
	.sleb128 -40
	.byte	0
	.uleb128 0x29
	.long	0x1c44
	.long	0x5184
	.quad	.LFB3953
	.quad	.LFE3953-.LFB3953
	.uleb128 0x1
	.byte	0x9c
	.long	0x51a1
	.uleb128 0x20
	.long	.LASF823
	.long	0x4831
	.uleb128 0x2
	.byte	0x91
	.sleb128 -24
	.uleb128 0xf
	.string	"__n"
	.byte	0x6
	.value	0x167
	.byte	0x20
	.long	0x641
	.uleb128 0x2
	.byte	0x91
	.sleb128 -32
	.byte	0
	.uleb128 0x1e
	.long	0x19a7
	.long	0x51ae
	.long	0x51c4
	.uleb128 0x12
	.long	.LASF823
	.long	0x4813
	.uleb128 0x53
	.string	"__a"
	.byte	0x6
	.byte	0x88
	.byte	0x25
	.long	0x4818
	.byte	0
	.uleb128 0x25
	.long	0x51a1
	.long	.LASF841
	.long	0x51e7
	.quad	.LFB3951
	.quad	.LFE3951-.LFB3951
	.uleb128 0x1
	.byte	0x9c
	.long	0x51f8
	.uleb128 0x10
	.long	0x51ae
	.uleb128 0x2
	.byte	0x91
	.sleb128 -24
	.uleb128 0x10
	.long	0x51b7
	.uleb128 0x2
	.byte	0x91
	.sleb128 -32
	.byte	0
	.uleb128 0x1e
	.long	0x1749
	.long	0x5205
	.long	0x521b
	.uleb128 0x12
	.long	.LASF823
	.long	0x47d2
	.uleb128 0x53
	.string	"__a"
	.byte	0x5
	.byte	0x9f
	.byte	0x22
	.long	0x47d7
	.byte	0
	.uleb128 0x25
	.long	0x51f8
	.long	.LASF842
	.long	0x523e
	.quad	.LFB3948
	.quad	.LFE3948-.LFB3948
	.uleb128 0x1
	.byte	0x9c
	.long	0x524f
	.uleb128 0x10
	.long	0x5205
	.uleb128 0x2
	.byte	0x91
	.sleb128 -24
	.uleb128 0x10
	.long	0x520e
	.uleb128 0x2
	.byte	0x91
	.sleb128 -32
	.byte	0
	.uleb128 0x15
	.long	0x2784
	.quad	.LFB3946
	.quad	.LFE3946-.LFB3946
	.uleb128 0x1
	.byte	0x9c
	.long	0x529b
	.uleb128 0xf
	.string	"__a"
	.byte	0x6
	.value	0x6f0
	.byte	0x29
	.long	0x4877
	.uleb128 0x2
	.byte	0x91
	.sleb128 -56
	.uleb128 0x43
	.long	.LASF843
	.byte	0x6
	.value	0x6f5
	.byte	0xf
	.long	0x64e
	.uleb128 0x2
	.byte	0x91
	.sleb128 -40
	.uleb128 0x43
	.long	.LASF844
	.byte	0x6
	.value	0x6f7
	.byte	0xf
	.long	0x64e
	.uleb128 0x2
	.byte	0x91
	.sleb128 -32
	.byte	0
	.uleb128 0x29
	.long	0x260c
	.long	0x52ba
	.quad	.LFB3905
	.quad	.LFE3905-.LFB3905
	.uleb128 0x1
	.byte	0x9c
	.long	0x52e7
	.uleb128 0x20
	.long	.LASF823
	.long	0x484f
	.uleb128 0x2
	.byte	0x91
	.sleb128 -24
	.uleb128 0xf
	.string	"__n"
	.byte	0x6
	.value	0x639
	.byte	0x24
	.long	0x1e21
	.uleb128 0x2
	.byte	0x91
	.sleb128 -32
	.uleb128 0x13
	.long	.LASF18
	.byte	0x6
	.value	0x639
	.byte	0x3b
	.long	0x4859
	.uleb128 0x2
	.byte	0x91
	.sleb128 -40
	.byte	0
	.uleb128 0x15
	.long	0x2c5d
	.quad	.LFB3904
	.quad	.LFE3904-.LFB3904
	.uleb128 0x1
	.byte	0x9c
	.long	0x533d
	.uleb128 0x4
	.long	.LASF126
	.long	0x47b4
	.uleb128 0xd
	.string	"_Tp"
	.long	0x113
	.uleb128 0x13
	.long	.LASF830
	.byte	0x8
	.value	0x34d
	.byte	0x1f
	.long	0x47b4
	.uleb128 0x2
	.byte	0x91
	.sleb128 -24
	.uleb128 0x13
	.long	.LASF831
	.byte	0x8
	.value	0x34d
	.byte	0x39
	.long	0x47b4
	.uleb128 0x2
	.byte	0x91
	.sleb128 -32
	.uleb128 0x26
	.long	0x47dc
	.uleb128 0x2
	.byte	0x91
	.sleb128 -40
	.byte	0
	.uleb128 0x3a
	.long	0x1a53
	.long	0x535c
	.quad	.LFB3903
	.quad	.LFE3903-.LFB3903
	.uleb128 0x1
	.byte	0x9c
	.long	0x5369
	.uleb128 0x20
	.long	.LASF823
	.long	0x4831
	.uleb128 0x2
	.byte	0x91
	.sleb128 -24
	.byte	0
	.uleb128 0x29
	.long	0x2632
	.long	0x5388
	.quad	.LFB3902
	.quad	.LFE3902-.LFB3902
	.uleb128 0x1
	.byte	0x9c
	.long	0x53a5
	.uleb128 0x20
	.long	.LASF823
	.long	0x484f
	.uleb128 0x2
	.byte	0x91
	.sleb128 -24
	.uleb128 0xf
	.string	"__n"
	.byte	0x6
	.value	0x643
	.byte	0x27
	.long	0x1e21
	.uleb128 0x2
	.byte	0x91
	.sleb128 -32
	.byte	0
	.uleb128 0x1e
	.long	0x1bcc
	.long	0x53b2
	.long	0x53c5
	.uleb128 0x12
	.long	.LASF823
	.long	0x4831
	.uleb128 0x12
	.long	.LASF845
	.long	0x11a
	.byte	0
	.uleb128 0x25
	.long	0x53a5
	.long	.LASF846
	.long	0x53e8
	.quad	.LFB3900
	.quad	.LFE3900-.LFB3900
	.uleb128 0x1
	.byte	0x9c
	.long	0x53f1
	.uleb128 0x10
	.long	0x53b2
	.uleb128 0x2
	.byte	0x91
	.sleb128 -24
	.byte	0
	.uleb128 0x1e
	.long	0x1b1d
	.long	0x53fe
	.long	0x5422
	.uleb128 0x12
	.long	.LASF823
	.long	0x4831
	.uleb128 0x2c
	.string	"__n"
	.byte	0x6
	.value	0x12f
	.byte	0x1b
	.long	0x641
	.uleb128 0x2c
	.string	"__a"
	.byte	0x6
	.value	0x12f
	.byte	0x36
	.long	0x483b
	.byte	0
	.uleb128 0x25
	.long	0x53f1
	.long	.LASF847
	.long	0x5445
	.quad	.LFB3897
	.quad	.LFE3897-.LFB3897
	.uleb128 0x1
	.byte	0x9c
	.long	0x545e
	.uleb128 0x10
	.long	0x53fe
	.uleb128 0x2
	.byte	0x91
	.sleb128 -40
	.uleb128 0x10
	.long	0x5407
	.uleb128 0x2
	.byte	0x91
	.sleb128 -48
	.uleb128 0x10
	.long	0x5414
	.uleb128 0x2
	.byte	0x91
	.sleb128 -56
	.byte	0
	.uleb128 0xa1
	.long	0x1a28
	.byte	0x6
	.byte	0x80
	.byte	0xe
	.long	0x5470
	.byte	0x2
	.long	0x5483
	.uleb128 0x12
	.long	.LASF823
	.long	0x4813
	.uleb128 0x12
	.long	.LASF845
	.long	0x11a
	.byte	0
	.uleb128 0x25
	.long	0x545e
	.long	.LASF848
	.long	0x54a6
	.quad	.LFB3895
	.quad	.LFE3895-.LFB3895
	.uleb128 0x1
	.byte	0x9c
	.long	0x54af
	.uleb128 0x10
	.long	0x5470
	.uleb128 0x2
	.byte	0x91
	.sleb128 -24
	.byte	0
	.uleb128 0x15
	.long	0x2763
	.quad	.LFB3892
	.quad	.LFE3892-.LFB3892
	.uleb128 0x1
	.byte	0x9c
	.long	0x54eb
	.uleb128 0xf
	.string	"__n"
	.byte	0x6
	.value	0x6e7
	.byte	0x23
	.long	0x1e21
	.uleb128 0x2
	.byte	0x91
	.sleb128 -56
	.uleb128 0xf
	.string	"__a"
	.byte	0x6
	.value	0x6e7
	.byte	0x3e
	.long	0x4854
	.uleb128 0x2
	.byte	0x91
	.sleb128 -64
	.byte	0
	.uleb128 0x1e
	.long	0x361b
	.long	0x54f8
	.long	0x550b
	.uleb128 0x12
	.long	.LASF823
	.long	0x47aa
	.uleb128 0x12
	.long	.LASF845
	.long	0x11a
	.byte	0
	.uleb128 0x3b
	.long	0x54eb
	.long	.LASF849
	.long	0x552e
	.quad	.LFB3890
	.quad	.LFE3890-.LFB3890
	.uleb128 0x1
	.byte	0x9c
	.long	0x5537
	.uleb128 0x10
	.long	0x54f8
	.uleb128 0x2
	.byte	0x91
	.sleb128 -24
	.byte	0
	.uleb128 0x1e
	.long	0x35e2
	.long	0x5544
	.long	0x554e
	.uleb128 0x12
	.long	.LASF823
	.long	0x47aa
	.byte	0
	.uleb128 0x3b
	.long	0x5537
	.long	.LASF850
	.long	0x5571
	.quad	.LFB3887
	.quad	.LFE3887-.LFB3887
	.uleb128 0x1
	.byte	0x9c
	.long	0x557a
	.uleb128 0x10
	.long	0x5544
	.uleb128 0x2
	.byte	0x91
	.sleb128 -24
	.byte	0
	.uleb128 0xb
	.long	0xebe
	.uleb128 0x68
	.long	0xeca
	.long	0x558c
	.long	0x55a2
	.uleb128 0x12
	.long	.LASF823
	.long	0x48cb
	.uleb128 0x53
	.string	"__n"
	.byte	0x23
	.byte	0xa6
	.byte	0x17
	.long	0x32f1
	.byte	0
	.uleb128 0x15
	.long	0x1578
	.quad	.LFB3795
	.quad	.LFE3795-.LFB3795
	.uleb128 0x1
	.byte	0x9c
	.long	0x55eb
	.uleb128 0x4
	.long	.LASF201
	.long	0x32f1
	.uleb128 0x4
	.long	.LASF202
	.long	0x10cd
	.uleb128 0x1c
	.string	"__d"
	.byte	0x3
	.byte	0xd3
	.byte	0x2a
	.long	0x4769
	.uleb128 0x2
	.byte	0x91
	.sleb128 -56
	.uleb128 0x5
	.long	.LASF851
	.byte	0x3
	.byte	0xd5
	.byte	0x25
	.long	0x11d2
	.byte	0
	.uleb128 0x8
	.long	0x55f0
	.uleb128 0x63
	.long	0x557a
	.long	0x55ff
	.uleb128 0x1
	.long	0x557a
	.byte	0
	.uleb128 0x68
	.long	0xeee
	.long	0x560c
	.long	0x5623
	.uleb128 0x12
	.long	.LASF823
	.long	0x48cb
	.uleb128 0xa2
	.long	.LASF852
	.byte	0x23
	.byte	0x6c
	.byte	0x24
	.long	0x55eb
	.byte	0
	.uleb128 0x69
	.long	0x2c90
	.long	0x564c
	.uleb128 0x4
	.long	.LASF123
	.long	0x107
	.uleb128 0x4
	.long	.LASF145
	.long	0x8bf
	.uleb128 0x44
	.long	.LASF853
	.byte	0x23
	.value	0x2ac
	.byte	0x2a
	.long	0x450e
	.byte	0
	.uleb128 0x69
	.long	0x2cbd
	.long	0x5679
	.uleb128 0x4
	.long	.LASF145
	.long	0x8bf
	.uleb128 0x44
	.long	.LASF854
	.byte	0x23
	.value	0x263
	.byte	0x2e
	.long	0x450e
	.uleb128 0x2c
	.string	"__s"
	.byte	0x23
	.value	0x263
	.byte	0x41
	.long	0x2e7
	.byte	0
	.uleb128 0x1e
	.long	0x1e2d
	.long	0x5686
	.long	0x56b7
	.uleb128 0x12
	.long	.LASF823
	.long	0x484f
	.uleb128 0x2c
	.string	"__n"
	.byte	0x6
	.value	0x20a
	.byte	0x18
	.long	0x1e21
	.uleb128 0x44
	.long	.LASF18
	.byte	0x6
	.value	0x20a
	.byte	0x2f
	.long	0x4859
	.uleb128 0x2c
	.string	"__a"
	.byte	0x6
	.value	0x20b
	.byte	0x1d
	.long	0x4854
	.byte	0
	.uleb128 0x25
	.long	0x5679
	.long	.LASF855
	.long	0x56da
	.quad	.LFB3790
	.quad	.LFE3790-.LFB3790
	.uleb128 0x1
	.byte	0x9c
	.long	0x56fb
	.uleb128 0x10
	.long	0x5686
	.uleb128 0x2
	.byte	0x91
	.sleb128 -40
	.uleb128 0x10
	.long	0x568f
	.uleb128 0x2
	.byte	0x91
	.sleb128 -48
	.uleb128 0x10
	.long	0x569c
	.uleb128 0x2
	.byte	0x91
	.sleb128 -56
	.uleb128 0x10
	.long	0x56a9
	.uleb128 0x2
	.byte	0x91
	.sleb128 -64
	.byte	0
	.uleb128 0x3a
	.long	0x22fd
	.long	0x571a
	.quad	.LFB3788
	.quad	.LFE3788-.LFB3788
	.uleb128 0x1
	.byte	0x9c
	.long	0x5737
	.uleb128 0x20
	.long	.LASF823
	.long	0x484f
	.uleb128 0x2
	.byte	0x91
	.sleb128 -24
	.uleb128 0xf
	.string	"__n"
	.byte	0x6
	.value	0x413
	.byte	0x1c
	.long	0x1e21
	.uleb128 0x2
	.byte	0x91
	.sleb128 -32
	.byte	0
	.uleb128 0x1e
	.long	0x1f6f
	.long	0x5744
	.long	0x5757
	.uleb128 0x12
	.long	.LASF823
	.long	0x484f
	.uleb128 0x12
	.long	.LASF845
	.long	0x11a
	.byte	0
	.uleb128 0x25
	.long	0x5737
	.long	.LASF856
	.long	0x577a
	.quad	.LFB3786
	.quad	.LFE3786-.LFB3786
	.uleb128 0x1
	.byte	0x9c
	.long	0x5783
	.uleb128 0x10
	.long	0x5744
	.uleb128 0x2
	.byte	0x91
	.sleb128 -24
	.byte	0
	.uleb128 0x1e
	.long	0x1dfe
	.long	0x5790
	.long	0x57b4
	.uleb128 0x12
	.long	.LASF823
	.long	0x484f
	.uleb128 0x2c
	.string	"__n"
	.byte	0x6
	.value	0x1fe
	.byte	0x18
	.long	0x1e21
	.uleb128 0x2c
	.string	"__a"
	.byte	0x6
	.value	0x1fe
	.byte	0x33
	.long	0x4854
	.byte	0
	.uleb128 0x25
	.long	0x5783
	.long	.LASF857
	.long	0x57d7
	.quad	.LFB3783
	.quad	.LFE3783-.LFB3783
	.uleb128 0x1
	.byte	0x9c
	.long	0x57f0
	.uleb128 0x10
	.long	0x5790
	.uleb128 0x2
	.byte	0x91
	.sleb128 -40
	.uleb128 0x10
	.long	0x5799
	.uleb128 0x2
	.byte	0x91
	.sleb128 -48
	.uleb128 0x10
	.long	0x57a6
	.uleb128 0x2
	.byte	0x91
	.sleb128 -56
	.byte	0
	.uleb128 0x1e
	.long	0x178e
	.long	0x57fd
	.long	0x5810
	.uleb128 0x12
	.long	.LASF823
	.long	0x47d2
	.uleb128 0x12
	.long	.LASF845
	.long	0x11a
	.byte	0
	.uleb128 0x25
	.long	0x57f0
	.long	.LASF858
	.long	0x5833
	.quad	.LFB3780
	.quad	.LFE3780-.LFB3780
	.uleb128 0x1
	.byte	0x9c
	.long	0x583c
	.uleb128 0x10
	.long	0x57fd
	.uleb128 0x2
	.byte	0x91
	.sleb128 -24
	.byte	0
	.uleb128 0x1e
	.long	0x172f
	.long	0x5849
	.long	0x5853
	.uleb128 0x12
	.long	.LASF823
	.long	0x47d2
	.byte	0
	.uleb128 0x25
	.long	0x583c
	.long	.LASF859
	.long	0x5876
	.quad	.LFB3777
	.quad	.LFE3777-.LFB3777
	.uleb128 0x1
	.byte	0x9c
	.long	0x587f
	.uleb128 0x10
	.long	0x5849
	.uleb128 0x2
	.byte	0x91
	.sleb128 -24
	.byte	0
	.uleb128 0xa3
	.long	.LASF860
	.byte	0x4
	.byte	0x30
	.byte	0x5
	.long	0x113
	.quad	.LFB3477
	.quad	.LFE3477-.LFB3477
	.uleb128 0x1
	.byte	0x9c
	.long	0x5925
	.uleb128 0x35
	.string	"n"
	.byte	0x35
	.byte	0x9
	.long	0x113
	.uleb128 0x3
	.byte	0x91
	.sleb128 -96
	.uleb128 0x2a
	.long	.LASF861
	.byte	0x39
	.byte	0xa
	.long	0x145a
	.uleb128 0x3
	.byte	0x91
	.sleb128 -80
	.uleb128 0x2a
	.long	.LASF862
	.byte	0x3a
	.byte	0x9
	.long	0x113
	.uleb128 0x3
	.byte	0x91
	.sleb128 -92
	.uleb128 0x35
	.string	"end"
	.byte	0x3b
	.byte	0xa
	.long	0x145a
	.uleb128 0x3
	.byte	0x91
	.sleb128 -72
	.uleb128 0x2a
	.long	.LASF863
	.byte	0x3c
	.byte	0xa
	.long	0x32f1
	.uleb128 0x2
	.byte	0x91
	.sleb128 -48
	.uleb128 0x2a
	.long	.LASF864
	.byte	0x42
	.byte	0x9
	.long	0x113
	.uleb128 0x3
	.byte	0x91
	.sleb128 -88
	.uleb128 0x2a
	.long	.LASF865
	.byte	0x44
	.byte	0xa
	.long	0x32f1
	.uleb128 0x2
	.byte	0x91
	.sleb128 -40
	.uleb128 0x2a
	.long	.LASF866
	.byte	0x4a
	.byte	0x9
	.long	0x113
	.uleb128 0x3
	.byte	0x91
	.sleb128 -84
	.uleb128 0x2a
	.long	.LASF867
	.byte	0x4c
	.byte	0xa
	.long	0x32f1
	.uleb128 0x2
	.byte	0x91
	.sleb128 -32
	.byte	0
	.uleb128 0x3a
	.long	0x14b4
	.long	0x5944
	.quad	.LFB3481
	.quad	.LFE3481-.LFB3481
	.uleb128 0x1
	.byte	0x9c
	.long	0x5951
	.uleb128 0x20
	.long	.LASF823
	.long	0x479b
	.uleb128 0x2
	.byte	0x91
	.sleb128 -24
	.byte	0
	.uleb128 0x15
	.long	0x15d2
	.quad	.LFB3480
	.quad	.LFE3480-.LFB3480
	.uleb128 0x1
	.byte	0x9c
	.long	0x59c0
	.uleb128 0x4
	.long	.LASF232
	.long	0x32f1
	.uleb128 0x4
	.long	.LASF233
	.long	0x10cd
	.uleb128 0x4
	.long	.LASF200
	.long	0x32f1
	.uleb128 0x4
	.long	.LASF234
	.long	0x10cd
	.uleb128 0x13
	.long	.LASF868
	.byte	0x3
	.value	0x294
	.byte	0x32
	.long	0x4769
	.uleb128 0x3
	.byte	0x91
	.sleb128 -88
	.uleb128 0x13
	.long	.LASF869
	.byte	0x3
	.value	0x295
	.byte	0x24
	.long	0x4769
	.uleb128 0x3
	.byte	0x91
	.sleb128 -96
	.uleb128 0x19
	.long	.LASF870
	.byte	0x3
	.value	0x299
	.byte	0x34
	.long	0x169d
	.byte	0
	.uleb128 0xb
	.long	0x155c
	.uleb128 0x15
	.long	0x1616
	.quad	.LFB3479
	.quad	.LFE3479-.LFB3479
	.uleb128 0x1
	.byte	0x9c
	.long	0x5a1c
	.uleb128 0x4
	.long	.LASF222
	.long	0x13e4
	.uleb128 0x4
	.long	.LASF237
	.long	0x1123
	.uleb128 0x4
	.long	.LASF238
	.long	0x1123
	.uleb128 0x13
	.long	.LASF868
	.byte	0x3
	.value	0x412
	.byte	0x32
	.long	0x59c0
	.uleb128 0x2
	.byte	0x91
	.sleb128 -56
	.uleb128 0x13
	.long	.LASF869
	.byte	0x3
	.value	0x413
	.byte	0x24
	.long	0x59c0
	.uleb128 0x2
	.byte	0x91
	.sleb128 -64
	.byte	0
	.uleb128 0x15
	.long	0x165d
	.quad	.LFB3478
	.quad	.LFE3478-.LFB3478
	.uleb128 0x1
	.byte	0x9c
	.long	0x5a63
	.uleb128 0x4
	.long	.LASF227
	.long	0x1123
	.uleb128 0x4
	.long	.LASF201
	.long	0x32f1
	.uleb128 0x4
	.long	.LASF202
	.long	0x10cd
	.uleb128 0xf
	.string	"__d"
	.byte	0x3
	.value	0x10b
	.byte	0x34
	.long	0x4769
	.uleb128 0x2
	.byte	0x91
	.sleb128 -24
	.byte	0
	.uleb128 0x54
	.long	.LASF871
	.byte	0x25
	.long	.LASF872
	.long	0x113
	.quad	.LFB3476
	.quad	.LFE3476-.LFB3476
	.uleb128 0x1
	.byte	0x9c
	.long	0x5ac2
	.uleb128 0x1c
	.string	"n"
	.byte	0x4
	.byte	0x25
	.byte	0x15
	.long	0x113
	.uleb128 0x3
	.byte	0x91
	.sleb128 -84
	.uleb128 0x35
	.string	"dp"
	.byte	0x27
	.byte	0x16
	.long	0x1c7d
	.uleb128 0x2
	.byte	0x91
	.sleb128 -64
	.uleb128 0x52
	.quad	.LBB4
	.quad	.LBE4-.LBB4
	.uleb128 0x35
	.string	"i"
	.byte	0x2a
	.byte	0xe
	.long	0x113
	.uleb128 0x3
	.byte	0x91
	.sleb128 -68
	.byte	0
	.byte	0
	.uleb128 0xa4
	.string	"fib"
	.byte	0x4
	.byte	0x1b
	.byte	0x5
	.long	.LASF897
	.long	0x113
	.quad	.LFB3475
	.quad	.LFE3475-.LFB3475
	.uleb128 0x1
	.byte	0x9c
	.long	0x5b06
	.uleb128 0x1c
	.string	"N"
	.byte	0x4
	.byte	0x1b
	.byte	0xd
	.long	0x113
	.uleb128 0x3
	.byte	0x91
	.sleb128 -84
	.uleb128 0x2a
	.long	.LASF873
	.byte	0x1d
	.byte	0x16
	.long	0x1c7d
	.uleb128 0x2
	.byte	0x91
	.sleb128 -64
	.byte	0
	.uleb128 0x54
	.long	.LASF874
	.byte	0x14
	.long	.LASF875
	.long	0x113
	.quad	.LFB3474
	.quad	.LFE3474-.LFB3474
	.uleb128 0x1
	.byte	0x9c
	.long	0x5b47
	.uleb128 0x33
	.long	.LASF873
	.byte	0x4
	.byte	0x14
	.byte	0x1e
	.long	0x4868
	.uleb128 0x2
	.byte	0x91
	.sleb128 -40
	.uleb128 0x1c
	.string	"N"
	.byte	0x4
	.byte	0x14
	.byte	0x27
	.long	0x113
	.uleb128 0x2
	.byte	0x91
	.sleb128 -44
	.byte	0
	.uleb128 0x54
	.long	.LASF876
	.byte	0x8
	.long	.LASF877
	.long	0x113
	.quad	.LFB3473
	.quad	.LFE3473-.LFB3473
	.uleb128 0x1
	.byte	0x9c
	.long	0x5ba6
	.uleb128 0x1c
	.string	"n"
	.byte	0x4
	.byte	0x8
	.byte	0x13
	.long	0x113
	.uleb128 0x3
	.byte	0x91
	.sleb128 -84
	.uleb128 0x35
	.string	"dp"
	.byte	0xa
	.byte	0x16
	.long	0x1c7d
	.uleb128 0x2
	.byte	0x91
	.sleb128 -64
	.uleb128 0x52
	.quad	.LBB3
	.quad	.LBE3-.LBB3
	.uleb128 0x35
	.string	"i"
	.byte	0xd
	.byte	0xe
	.long	0x113
	.uleb128 0x3
	.byte	0x91
	.sleb128 -68
	.byte	0
	.byte	0
	.uleb128 0x1e
	.long	0x1396
	.long	0x5bbc
	.long	0x5bd3
	.uleb128 0x4
	.long	.LASF200
	.long	0x32f1
	.uleb128 0x12
	.long	.LASF823
	.long	0x4764
	.uleb128 0x44
	.long	.LASF878
	.byte	0x3
	.value	0x209
	.byte	0x2d
	.long	0x4782
	.byte	0
	.uleb128 0x3b
	.long	0x5ba6
	.long	.LASF879
	.long	0x5bff
	.quad	.LFB3448
	.quad	.LFE3448-.LFB3448
	.uleb128 0x1
	.byte	0x9c
	.long	0x5c10
	.uleb128 0x4
	.long	.LASF200
	.long	0x32f1
	.uleb128 0x10
	.long	0x5bbc
	.uleb128 0x2
	.byte	0x91
	.sleb128 -24
	.uleb128 0x10
	.long	0x5bc5
	.uleb128 0x2
	.byte	0x91
	.sleb128 -32
	.byte	0
	.uleb128 0x3a
	.long	0x11e4
	.long	0x5c2f
	.quad	.LFB3443
	.quad	.LFE3443-.LFB3443
	.uleb128 0x1
	.byte	0x9c
	.long	0x5c3c
	.uleb128 0x20
	.long	.LASF823
	.long	0x4778
	.uleb128 0x2
	.byte	0x91
	.sleb128 -24
	.byte	0
	.uleb128 0x34
	.long	0x2ce6
	.quad	.LFB2704
	.quad	.LFE2704-.LFB2704
	.uleb128 0x1
	.byte	0x9c
	.long	0x5c7f
	.uleb128 0xd
	.string	"_Tp"
	.long	0x59
	.uleb128 0x1c
	.string	"__a"
	.byte	0x2
	.byte	0xe6
	.byte	0x14
	.long	0x4523
	.uleb128 0x2
	.byte	0x91
	.sleb128 -24
	.uleb128 0x1c
	.string	"__b"
	.byte	0x2
	.byte	0xe6
	.byte	0x24
	.long	0x4523
	.uleb128 0x2
	.byte	0x91
	.sleb128 -32
	.byte	0
	.uleb128 0x34
	.long	0x2d0e
	.quad	.LFB371
	.quad	.LFE371-.LFB371
	.uleb128 0x1
	.byte	0x9c
	.long	0x5cab
	.uleb128 0xf
	.string	"__n"
	.byte	0x2
	.value	0x3f2
	.byte	0x23
	.long	0x59
	.uleb128 0x2
	.byte	0x91
	.sleb128 -24
	.byte	0
	.uleb128 0xa5
	.long	.LASF826
	.byte	0x1
	.byte	0xae
	.byte	0x21
	.long	.LASF880
	.long	0xa1
	.quad	.LFB38
	.quad	.LFE38-.LFB38
	.uleb128 0x1
	.byte	0x9c
	.uleb128 0x26
	.long	0x641
	.uleb128 0x2
	.byte	0x91
	.sleb128 -24
	.uleb128 0x1c
	.string	"__p"
	.byte	0x1
	.byte	0xae
	.byte	0x41
	.long	0xa1
	.uleb128 0x2
	.byte	0x91
	.sleb128 -32
	.byte	0
	.byte	0
	.section	.debug_abbrev,"",@progbits
.Ldebug_abbrev0:
	.uleb128 0x1
	.uleb128 0x5
	.byte	0
	.uleb128 0x49
	.uleb128 0x13
	.byte	0
	.byte	0
	.uleb128 0x2
	.uleb128 0x8
	.byte	0
	.uleb128 0x3a
	.uleb128 0xb
	.uleb128 0x3b
	.uleb128 0xb
	.uleb128 0x39
	.uleb128 0xb
	.uleb128 0x18
	.uleb128 0x13
	.byte	0
	.byte	0
	.uleb128 0x3
	.uleb128 0x5
	.byte	0
	.uleb128 0x49
	.uleb128 0x13
	.uleb128 0x34
	.uleb128 0x19
	.byte	0
	.byte	0
	.uleb128 0x4
	.uleb128 0x2f
	.byte	0
	.uleb128 0x3
	.uleb128 0xe
	.uleb128 0x49
	.uleb128 0x13
	.byte	0
	.byte	0
	.uleb128 0x5
	.uleb128 0x16
	.byte	0
	.uleb128 0x3
	.uleb128 0xe
	.uleb128 0x3a
	.uleb128 0xb
	.uleb128 0x3b
	.uleb128 0xb
	.uleb128 0x39
	.uleb128 0xb
	.uleb128 0x49
	.uleb128 0x13
	.byte	0
	.byte	0
	.uleb128 0x6
	.uleb128 0xd
	.byte	0
	.uleb128 0x3
	.uleb128 0xe
	.uleb128 0x3a
	.uleb128 0xb
	.uleb128 0x3b
	.uleb128 0xb
	.uleb128 0x39
	.uleb128 0xb
	.uleb128 0x49
	.uleb128 0x13
	.uleb128 0x38
	.uleb128 0xb
	.byte	0
	.byte	0
	.uleb128 0x7
	.uleb128 0x2e
	.byte	0x1
	.uleb128 0x3f
	.uleb128 0x19
	.uleb128 0x3
	.uleb128 0xe
	.uleb128 0x3a
	.uleb128 0xb
	.uleb128 0x3b
	.uleb128 0x5
	.uleb128 0x39
	.uleb128 0xb
	.uleb128 0x49
	.uleb128 0x13
	.uleb128 0x3c
	.uleb128 0x19
	.uleb128 0x1
	.uleb128 0x13
	.byte	0
	.byte	0
	.uleb128 0x8
	.uleb128 0xf
	.byte	0
	.uleb128 0xb
	.uleb128 0x21
	.sleb128 8
	.uleb128 0x49
	.uleb128 0x13
	.byte	0
	.byte	0
	.uleb128 0x9
	.uleb128 0x26
	.byte	0
	.uleb128 0x49
	.uleb128 0x13
	.byte	0
	.byte	0
	.uleb128 0xa
	.uleb128 0x2e
	.byte	0x1
	.uleb128 0x3f
	.uleb128 0x19
	.uleb128 0x3
	.uleb128 0xe
	.uleb128 0x3a
	.uleb128 0xb
	.uleb128 0x3b
	.uleb128 0xb
	.uleb128 0x39
	.uleb128 0xb
	.uleb128 0x49
	.uleb128 0x13
	.uleb128 0x3c
	.uleb128 0x19
	.uleb128 0x1
	.uleb128 0x13
	.byte	0
	.byte	0
	.uleb128 0xb
	.uleb128 0x10
	.byte	0
	.uleb128 0xb
	.uleb128 0x21
	.sleb128 8
	.uleb128 0x49
	.uleb128 0x13
	.byte	0
	.byte	0
	.uleb128 0xc
	.uleb128 0x2e
	.byte	0x1
	.uleb128 0x3f
	.uleb128 0x19
	.uleb128 0x3
	.uleb128 0xe
	.uleb128 0x3a
	.uleb128 0xb
	.uleb128 0x3b
	.uleb128 0x5
	.uleb128 0x39
	.uleb128 0xb
	.uleb128 0x6e
	.uleb128 0xe
	.uleb128 0x49
	.uleb128 0x13
	.uleb128 0x3c
	.uleb128 0x19
	.uleb128 0x1
	.uleb128 0x13
	.byte	0
	.byte	0
	.uleb128 0xd
	.uleb128 0x2f
	.byte	0
	.uleb128 0x3
	.uleb128 0x8
	.uleb128 0x49
	.uleb128 0x13
	.byte	0
	.byte	0
	.uleb128 0xe
	.uleb128 0x2e
	.byte	0x1
	.uleb128 0x3f
	.uleb128 0x19
	.uleb128 0x3
	.uleb128 0xe
	.uleb128 0x3a
	.uleb128 0xb
	.uleb128 0x3b
	.uleb128 0x5
	.uleb128 0x39
	.uleb128 0xb
	.uleb128 0x6e
	.uleb128 0xe
	.uleb128 0x49
	.uleb128 0x13
	.uleb128 0x32
	.uleb128 0xb
	.uleb128 0x3c
	.uleb128 0x19
	.uleb128 0x64
	.uleb128 0x13
	.uleb128 0x1
	.uleb128 0x13
	.byte	0
	.byte	0
	.uleb128 0xf
	.uleb128 0x5
	.byte	0
	.uleb128 0x3
	.uleb128 0x8
	.uleb128 0x3a
	.uleb128 0xb
	.uleb128 0x3b
	.uleb128 0x5
	.uleb128 0x39
	.uleb128 0xb
	.uleb128 0x49
	.uleb128 0x13
	.uleb128 0x2
	.uleb128 0x18
	.byte	0
	.byte	0
	.uleb128 0x10
	.uleb128 0x5
	.byte	0
	.uleb128 0x31
	.uleb128 0x13
	.uleb128 0x2
	.uleb128 0x18
	.byte	0
	.byte	0
	.uleb128 0x11
	.uleb128 0x2e
	.byte	0x1
	.uleb128 0x3f
	.uleb128 0x19
	.uleb128 0x3
	.uleb128 0xe
	.uleb128 0x3a
	.uleb128 0xb
	.uleb128 0x3b
	.uleb128 0x5
	.uleb128 0x39
	.uleb128 0xb
	.uleb128 0x6e
	.uleb128 0xe
	.uleb128 0x32
	.uleb128 0xb
	.uleb128 0x3c
	.uleb128 0x19
	.uleb128 0x64
	.uleb128 0x13
	.uleb128 0x1
	.uleb128 0x13
	.byte	0
	.byte	0
	.uleb128 0x12
	.uleb128 0x5
	.byte	0
	.uleb128 0x3
	.uleb128 0xe
	.uleb128 0x49
	.uleb128 0x13
	.uleb128 0x34
	.uleb128 0x19
	.byte	0
	.byte	0
	.uleb128 0x13
	.uleb128 0x5
	.byte	0
	.uleb128 0x3
	.uleb128 0xe
	.uleb128 0x3a
	.uleb128 0xb
	.uleb128 0x3b
	.uleb128 0x5
	.uleb128 0x39
	.uleb128 0xb
	.uleb128 0x49
	.uleb128 0x13
	.uleb128 0x2
	.uleb128 0x18
	.byte	0
	.byte	0
	.uleb128 0x14
	.uleb128 0x24
	.byte	0
	.uleb128 0xb
	.uleb128 0xb
	.uleb128 0x3e
	.uleb128 0xb
	.uleb128 0x3
	.uleb128 0xe
	.byte	0
	.byte	0
	.uleb128 0x15
	.uleb128 0x2e
	.byte	0x1
	.uleb128 0x47
	.uleb128 0x13
	.uleb128 0x11
	.uleb128 0x1
	.uleb128 0x12
	.uleb128 0x7
	.uleb128 0x40
	.uleb128 0x18
	.uleb128 0x7c
	.uleb128 0x19
	.uleb128 0x1
	.uleb128 0x13
	.byte	0
	.byte	0
	.uleb128 0x16
	.uleb128 0x13
	.byte	0x1
	.uleb128 0x3
	.uleb128 0xe
	.uleb128 0xb
	.uleb128 0xb
	.uleb128 0x3a
	.uleb128 0xb
	.uleb128 0x3b
	.uleb128 0xb
	.uleb128 0x39
	.uleb128 0xb
	.uleb128 0x1
	.uleb128 0x13
	.byte	0
	.byte	0
	.uleb128 0x17
	.uleb128 0x8
	.byte	0
	.uleb128 0x3a
	.uleb128 0xb
	.uleb128 0x3b
	.uleb128 0x5
	.uleb128 0x39
	.uleb128 0xb
	.uleb128 0x18
	.uleb128 0x13
	.byte	0
	.byte	0
	.uleb128 0x18
	.uleb128 0x2e
	.byte	0x1
	.uleb128 0x3f
	.uleb128 0x19
	.uleb128 0x3
	.uleb128 0xe
	.uleb128 0x3a
	.uleb128 0xb
	.uleb128 0x3b
	.uleb128 0x5
	.uleb128 0x39
	.uleb128 0xb
	.uleb128 0x6e
	.uleb128 0xe
	.uleb128 0x49
	.uleb128 0x13
	.uleb128 0x3c
	.uleb128 0x19
	.uleb128 0x64
	.uleb128 0x13
	.uleb128 0x1
	.uleb128 0x13
	.byte	0
	.byte	0
	.uleb128 0x19
	.uleb128 0x16
	.byte	0
	.uleb128 0x3
	.uleb128 0xe
	.uleb128 0x3a
	.uleb128 0xb
	.uleb128 0x3b
	.uleb128 0x5
	.uleb128 0x39
	.uleb128 0xb
	.uleb128 0x49
	.uleb128 0x13
	.byte	0
	.byte	0
	.uleb128 0x1a
	.uleb128 0x2e
	.byte	0x1
	.uleb128 0x3f
	.uleb128 0x19
	.uleb128 0x3
	.uleb128 0xe
	.uleb128 0x3a
	.uleb128 0xb
	.uleb128 0x3b
	.uleb128 0xb
	.uleb128 0x39
	.uleb128 0xb
	.uleb128 0x6e
	.uleb128 0xe
	.uleb128 0x49
	.uleb128 0x13
	.uleb128 0x3c
	.uleb128 0x19
	.uleb128 0x1
	.uleb128 0x13
	.byte	0
	.byte	0
	.uleb128 0x1b
	.uleb128 0x2e
	.byte	0x1
	.uleb128 0x3f
	.uleb128 0x19
	.uleb128 0x3
	.uleb128 0xe
	.uleb128 0x3a
	.uleb128 0xb
	.uleb128 0x3b
	.uleb128 0xb
	.uleb128 0x39
	.uleb128 0xb
	.uleb128 0x6e
	.uleb128 0xe
	.uleb128 0x49
	.uleb128 0x13
	.uleb128 0x32
	.uleb128 0xb
	.uleb128 0x3c
	.uleb128 0x19
	.uleb128 0x64
	.uleb128 0x13
	.uleb128 0x1
	.uleb128 0x13
	.byte	0
	.byte	0
	.uleb128 0x1c
	.uleb128 0x5
	.byte	0
	.uleb128 0x3
	.uleb128 0x8
	.uleb128 0x3a
	.uleb128 0xb
	.uleb128 0x3b
	.uleb128 0xb
	.uleb128 0x39
	.uleb128 0xb
	.uleb128 0x49
	.uleb128 0x13
	.uleb128 0x2
	.uleb128 0x18
	.byte	0
	.byte	0
	.uleb128 0x1d
	.uleb128 0x2e
	.byte	0x1
	.uleb128 0x3f
	.uleb128 0x19
	.uleb128 0x3
	.uleb128 0xe
	.uleb128 0x3a
	.uleb128 0xb
	.uleb128 0x3b
	.uleb128 0xb
	.uleb128 0x39
	.uleb128 0xb
	.uleb128 0x6e
	.uleb128 0xe
	.uleb128 0x32
	.uleb128 0x21
	.sleb128 1
	.uleb128 0x3c
	.uleb128 0x19
	.uleb128 0x64
	.uleb128 0x13
	.uleb128 0x1
	.uleb128 0x13
	.byte	0
	.byte	0
	.uleb128 0x1e
	.uleb128 0x2e
	.byte	0x1
	.uleb128 0x47
	.uleb128 0x13
	.uleb128 0x64
	.uleb128 0x13
	.uleb128 0x20
	.uleb128 0x21
	.sleb128 2
	.uleb128 0x1
	.uleb128 0x13
	.byte	0
	.byte	0
	.uleb128 0x1f
	.uleb128 0x2e
	.byte	0x1
	.uleb128 0x3f
	.uleb128 0x19
	.uleb128 0x3
	.uleb128 0xe
	.uleb128 0x3a
	.uleb128 0xb
	.uleb128 0x3b
	.uleb128 0x5
	.uleb128 0x39
	.uleb128 0xb
	.uleb128 0x6e
	.uleb128 0xe
	.uleb128 0x3c
	.uleb128 0x19
	.uleb128 0x64
	.uleb128 0x13
	.uleb128 0x1
	.uleb128 0x13
	.byte	0
	.byte	0
	.uleb128 0x20
	.uleb128 0x5
	.byte	0
	.uleb128 0x3
	.uleb128 0xe
	.uleb128 0x49
	.uleb128 0x13
	.uleb128 0x34
	.uleb128 0x19
	.uleb128 0x2
	.uleb128 0x18
	.byte	0
	.byte	0
	.uleb128 0x21
	.uleb128 0x2e
	.byte	0
	.uleb128 0x3f
	.uleb128 0x19
	.uleb128 0x3
	.uleb128 0xe
	.uleb128 0x3a
	.uleb128 0x21
	.sleb128 62
	.uleb128 0x3b
	.uleb128 0xb
	.uleb128 0x39
	.uleb128 0x21
	.sleb128 5
	.uleb128 0x6e
	.uleb128 0xe
	.uleb128 0x49
	.uleb128 0x13
	.uleb128 0x32
	.uleb128 0x21
	.sleb128 1
	.uleb128 0x3c
	.uleb128 0x19
	.byte	0
	.byte	0
	.uleb128 0x22
	.uleb128 0x2e
	.byte	0x1
	.uleb128 0x3f
	.uleb128 0x19
	.uleb128 0x3
	.uleb128 0xe
	.uleb128 0x3a
	.uleb128 0xb
	.uleb128 0x3b
	.uleb128 0xb
	.uleb128 0x39
	.uleb128 0xb
	.uleb128 0x6e
	.uleb128 0xe
	.uleb128 0x3c
	.uleb128 0x19
	.uleb128 0x64
	.uleb128 0x13
	.uleb128 0x1
	.uleb128 0x13
	.byte	0
	.byte	0
	.uleb128 0x23
	.uleb128 0x16
	.byte	0
	.uleb128 0x3
	.uleb128 0xe
	.uleb128 0x3a
	.uleb128 0xb
	.uleb128 0x3b
	.uleb128 0xb
	.uleb128 0x39
	.uleb128 0xb
	.uleb128 0x49
	.uleb128 0x13
	.uleb128 0x32
	.uleb128 0x21
	.sleb128 1
	.byte	0
	.byte	0
	.uleb128 0x24
	.uleb128 0x16
	.byte	0
	.uleb128 0x3
	.uleb128 0xe
	.uleb128 0x3a
	.uleb128 0x21
	.sleb128 6
	.uleb128 0x3b
	.uleb128 0x5
	.uleb128 0x39
	.uleb128 0xb
	.uleb128 0x49
	.uleb128 0x13
	.uleb128 0x32
	.uleb128 0x21
	.sleb128 1
	.byte	0
	.byte	0
	.uleb128 0x25
	.uleb128 0x2e
	.byte	0x1
	.uleb128 0x31
	.uleb128 0x13
	.uleb128 0x6e
	.uleb128 0xe
	.uleb128 0x64
	.uleb128 0x13
	.uleb128 0x11
	.uleb128 0x1
	.uleb128 0x12
	.uleb128 0x7
	.uleb128 0x40
	.uleb128 0x18
	.uleb128 0x7c
	.uleb128 0x19
	.uleb128 0x1
	.uleb128 0x13
	.byte	0
	.byte	0
	.uleb128 0x26
	.uleb128 0x5
	.byte	0
	.uleb128 0x49
	.uleb128 0x13
	.uleb128 0x2
	.uleb128 0x18
	.byte	0
	.byte	0
	.uleb128 0x27
	.uleb128 0x2
	.byte	0x1
	.uleb128 0x3
	.uleb128 0xe
	.uleb128 0xb
	.uleb128 0xb
	.uleb128 0x3a
	.uleb128 0xb
	.uleb128 0x3b
	.uleb128 0xb
	.uleb128 0x39
	.uleb128 0xb
	.uleb128 0x1
	.uleb128 0x13
	.byte	0
	.byte	0
	.uleb128 0x28
	.uleb128 0x13
	.byte	0x1
	.uleb128 0x3
	.uleb128 0xe
	.uleb128 0xb
	.uleb128 0xb
	.uleb128 0x3a
	.uleb128 0xb
	.uleb128 0x3b
	.uleb128 0x5
	.uleb128 0x39
	.uleb128 0xb
	.uleb128 0x1
	.uleb128 0x13
	.byte	0
	.byte	0
	.uleb128 0x29
	.uleb128 0x2e
	.byte	0x1
	.uleb128 0x47
	.uleb128 0x13
	.uleb128 0x64
	.uleb128 0x13
	.uleb128 0x11
	.uleb128 0x1
	.uleb128 0x12
	.uleb128 0x7
	.uleb128 0x40
	.uleb128 0x18
	.uleb128 0x7c
	.uleb128 0x19
	.uleb128 0x1
	.uleb128 0x13
	.byte	0
	.byte	0
	.uleb128 0x2a
	.uleb128 0x34
	.byte	0
	.uleb128 0x3
	.uleb128 0xe
	.uleb128 0x3a
	.uleb128 0x21
	.sleb128 4
	.uleb128 0x3b
	.uleb128 0xb
	.uleb128 0x39
	.uleb128 0xb
	.uleb128 0x49
	.uleb128 0x13
	.uleb128 0x2
	.uleb128 0x18
	.byte	0
	.byte	0
	.uleb128 0x2b
	.uleb128 0x42
	.byte	0
	.uleb128 0xb
	.uleb128 0x21
	.sleb128 8
	.uleb128 0x49
	.uleb128 0x13
	.byte	0
	.byte	0
	.uleb128 0x2c
	.uleb128 0x5
	.byte	0
	.uleb128 0x3
	.uleb128 0x8
	.uleb128 0x3a
	.uleb128 0xb
	.uleb128 0x3b
	.uleb128 0x5
	.uleb128 0x39
	.uleb128 0xb
	.uleb128 0x49
	.uleb128 0x13
	.byte	0
	.byte	0
	.uleb128 0x2d
	.uleb128 0x2e
	.byte	0x1
	.uleb128 0x3f
	.uleb128 0x19
	.uleb128 0x3
	.uleb128 0xe
	.uleb128 0x3a
	.uleb128 0xb
	.uleb128 0x3b
	.uleb128 0xb
	.uleb128 0x39
	.uleb128 0xb
	.uleb128 0x6e
	.uleb128 0xe
	.uleb128 0x49
	.uleb128 0x13
	.uleb128 0x3c
	.uleb128 0x19
	.uleb128 0x64
	.uleb128 0x13
	.uleb128 0x1
	.uleb128 0x13
	.byte	0
	.byte	0
	.uleb128 0x2e
	.uleb128 0x1c
	.byte	0
	.uleb128 0x49
	.uleb128 0x13
	.uleb128 0x38
	.uleb128 0x21
	.sleb128 0
	.byte	0
	.byte	0
	.uleb128 0x2f
	.uleb128 0x2e
	.byte	0
	.uleb128 0x3f
	.uleb128 0x19
	.uleb128 0x3
	.uleb128 0x8
	.uleb128 0x3a
	.uleb128 0xb
	.uleb128 0x3b
	.uleb128 0x5
	.uleb128 0x39
	.uleb128 0xb
	.uleb128 0x6e
	.uleb128 0xe
	.uleb128 0x49
	.uleb128 0x13
	.uleb128 0x3c
	.uleb128 0x19
	.byte	0
	.byte	0
	.uleb128 0x30
	.uleb128 0x30
	.byte	0
	.uleb128 0x3
	.uleb128 0xe
	.uleb128 0x49
	.uleb128 0x13
	.uleb128 0x1c
	.uleb128 0x21
	.sleb128 1
	.byte	0
	.byte	0
	.uleb128 0x31
	.uleb128 0x18
	.byte	0
	.byte	0
	.byte	0
	.uleb128 0x32
	.uleb128 0x2e
	.byte	0x1
	.uleb128 0x3f
	.uleb128 0x19
	.uleb128 0x3
	.uleb128 0xe
	.uleb128 0x3a
	.uleb128 0xb
	.uleb128 0x3b
	.uleb128 0x5
	.uleb128 0x39
	.uleb128 0x21
	.sleb128 13
	.uleb128 0x3c
	.uleb128 0x19
	.uleb128 0x1
	.uleb128 0x13
	.byte	0
	.byte	0
	.uleb128 0x33
	.uleb128 0x5
	.byte	0
	.uleb128 0x3
	.uleb128 0xe
	.uleb128 0x3a
	.uleb128 0xb
	.uleb128 0x3b
	.uleb128 0xb
	.uleb128 0x39
	.uleb128 0xb
	.uleb128 0x49
	.uleb128 0x13
	.uleb128 0x2
	.uleb128 0x18
	.byte	0
	.byte	0
	.uleb128 0x34
	.uleb128 0x2e
	.byte	0x1
	.uleb128 0x47
	.uleb128 0x13
	.uleb128 0x11
	.uleb128 0x1
	.uleb128 0x12
	.uleb128 0x7
	.uleb128 0x40
	.uleb128 0x18
	.uleb128 0x7a
	.uleb128 0x19
	.uleb128 0x1
	.uleb128 0x13
	.byte	0
	.byte	0
	.uleb128 0x35
	.uleb128 0x34
	.byte	0
	.uleb128 0x3
	.uleb128 0x8
	.uleb128 0x3a
	.uleb128 0x21
	.sleb128 4
	.uleb128 0x3b
	.uleb128 0xb
	.uleb128 0x39
	.uleb128 0xb
	.uleb128 0x49
	.uleb128 0x13
	.uleb128 0x2
	.uleb128 0x18
	.byte	0
	.byte	0
	.uleb128 0x36
	.uleb128 0x2
	.byte	0
	.uleb128 0x3
	.uleb128 0xe
	.uleb128 0x3c
	.uleb128 0x19
	.byte	0
	.byte	0
	.uleb128 0x37
	.uleb128 0x2e
	.byte	0x1
	.uleb128 0x3f
	.uleb128 0x19
	.uleb128 0x3
	.uleb128 0xe
	.uleb128 0x3a
	.uleb128 0xb
	.uleb128 0x3b
	.uleb128 0x5
	.uleb128 0x39
	.uleb128 0xb
	.uleb128 0x6e
	.uleb128 0xe
	.uleb128 0x3c
	.uleb128 0x19
	.uleb128 0x1
	.uleb128 0x13
	.byte	0
	.byte	0
	.uleb128 0x38
	.uleb128 0x2e
	.byte	0x1
	.uleb128 0x3f
	.uleb128 0x19
	.uleb128 0x3
	.uleb128 0xe
	.uleb128 0x3a
	.uleb128 0xb
	.uleb128 0x3b
	.uleb128 0x5
	.uleb128 0x39
	.uleb128 0xb
	.uleb128 0x6e
	.uleb128 0xe
	.uleb128 0x3c
	.uleb128 0x19
	.uleb128 0x8b
	.uleb128 0x21
	.sleb128 1
	.uleb128 0x64
	.uleb128 0x13
	.uleb128 0x1
	.uleb128 0x13
	.byte	0
	.byte	0
	.uleb128 0x39
	.uleb128 0x2e
	.byte	0
	.uleb128 0x3f
	.uleb128 0x19
	.uleb128 0x3
	.uleb128 0xe
	.uleb128 0x3a
	.uleb128 0x21
	.sleb128 48
	.uleb128 0x3b
	.uleb128 0xb
	.uleb128 0x39
	.uleb128 0x21
	.sleb128 27
	.uleb128 0x6e
	.uleb128 0xe
	.uleb128 0x49
	.uleb128 0x13
	.uleb128 0x3c
	.uleb128 0x19
	.byte	0
	.byte	0
	.uleb128 0x3a
	.uleb128 0x2e
	.byte	0x1
	.uleb128 0x47
	.uleb128 0x13
	.uleb128 0x64
	.uleb128 0x13
	.uleb128 0x11
	.uleb128 0x1
	.uleb128 0x12
	.uleb128 0x7
	.uleb128 0x40
	.uleb128 0x18
	.uleb128 0x7a
	.uleb128 0x19
	.uleb128 0x1
	.uleb128 0x13
	.byte	0
	.byte	0
	.uleb128 0x3b
	.uleb128 0x2e
	.byte	0x1
	.uleb128 0x31
	.uleb128 0x13
	.uleb128 0x6e
	.uleb128 0xe
	.uleb128 0x64
	.uleb128 0x13
	.uleb128 0x11
	.uleb128 0x1
	.uleb128 0x12
	.uleb128 0x7
	.uleb128 0x40
	.uleb128 0x18
	.uleb128 0x7a
	.uleb128 0x19
	.uleb128 0x1
	.uleb128 0x13
	.byte	0
	.byte	0
	.uleb128 0x3c
	.uleb128 0xd
	.byte	0
	.uleb128 0x3
	.uleb128 0xe
	.uleb128 0x3a
	.uleb128 0x21
	.sleb128 14
	.uleb128 0x3b
	.uleb128 0x21
	.sleb128 0
	.uleb128 0x49
	.uleb128 0x13
	.uleb128 0x38
	.uleb128 0xb
	.byte	0
	.byte	0
	.uleb128 0x3d
	.uleb128 0x13
	.byte	0x1
	.uleb128 0xb
	.uleb128 0xb
	.uleb128 0x3a
	.uleb128 0xb
	.uleb128 0x3b
	.uleb128 0xb
	.uleb128 0x39
	.uleb128 0xb
	.uleb128 0x6e
	.uleb128 0xe
	.uleb128 0x1
	.uleb128 0x13
	.byte	0
	.byte	0
	.uleb128 0x3e
	.uleb128 0x39
	.byte	0x1
	.uleb128 0x3
	.uleb128 0xe
	.uleb128 0x3a
	.uleb128 0xb
	.uleb128 0x3b
	.uleb128 0xb
	.uleb128 0x39
	.uleb128 0xb
	.uleb128 0x1
	.uleb128 0x13
	.byte	0
	.byte	0
	.uleb128 0x3f
	.uleb128 0x39
	.byte	0
	.uleb128 0x3
	.uleb128 0xe
	.uleb128 0x3a
	.uleb128 0xb
	.uleb128 0x3b
	.uleb128 0xb
	.uleb128 0x39
	.uleb128 0xb
	.byte	0
	.byte	0
	.uleb128 0x40
	.uleb128 0x2e
	.byte	0x1
	.uleb128 0x3f
	.uleb128 0x19
	.uleb128 0x3
	.uleb128 0x8
	.uleb128 0x3a
	.uleb128 0x21
	.sleb128 6
	.uleb128 0x3b
	.uleb128 0x5
	.uleb128 0x39
	.uleb128 0x21
	.sleb128 7
	.uleb128 0x6e
	.uleb128 0xe
	.uleb128 0x49
	.uleb128 0x13
	.uleb128 0x32
	.uleb128 0x21
	.sleb128 1
	.uleb128 0x3c
	.uleb128 0x19
	.uleb128 0x64
	.uleb128 0x13
	.uleb128 0x1
	.uleb128 0x13
	.byte	0
	.byte	0
	.uleb128 0x41
	.uleb128 0x2e
	.byte	0x1
	.uleb128 0x3f
	.uleb128 0x19
	.uleb128 0x3
	.uleb128 0xe
	.uleb128 0x3a
	.uleb128 0xb
	.uleb128 0x3b
	.uleb128 0xb
	.uleb128 0x39
	.uleb128 0xb
	.uleb128 0x6e
	.uleb128 0xe
	.uleb128 0x3c
	.uleb128 0x19
	.uleb128 0x1
	.uleb128 0x13
	.byte	0
	.byte	0
	.uleb128 0x42
	.uleb128 0x34
	.byte	0
	.uleb128 0x47
	.uleb128 0x13
	.byte	0
	.byte	0
	.uleb128 0x43
	.uleb128 0x34
	.byte	0
	.uleb128 0x3
	.uleb128 0xe
	.uleb128 0x3a
	.uleb128 0xb
	.uleb128 0x3b
	.uleb128 0x5
	.uleb128 0x39
	.uleb128 0xb
	.uleb128 0x49
	.uleb128 0x13
	.uleb128 0x2
	.uleb128 0x18
	.byte	0
	.byte	0
	.uleb128 0x44
	.uleb128 0x5
	.byte	0
	.uleb128 0x3
	.uleb128 0xe
	.uleb128 0x3a
	.uleb128 0xb
	.uleb128 0x3b
	.uleb128 0x5
	.uleb128 0x39
	.uleb128 0xb
	.uleb128 0x49
	.uleb128 0x13
	.byte	0
	.byte	0
	.uleb128 0x45
	.uleb128 0x1
	.byte	0x1
	.uleb128 0x49
	.uleb128 0x13
	.uleb128 0x1
	.uleb128 0x13
	.byte	0
	.byte	0
	.uleb128 0x46
	.uleb128 0x21
	.byte	0
	.uleb128 0x49
	.uleb128 0x13
	.uleb128 0x2f
	.uleb128 0xb
	.byte	0
	.byte	0
	.uleb128 0x47
	.uleb128 0x39
	.byte	0
	.uleb128 0x3
	.uleb128 0xe
	.uleb128 0x3a
	.uleb128 0xb
	.uleb128 0x3b
	.uleb128 0x5
	.uleb128 0x39
	.uleb128 0x21
	.sleb128 13
	.byte	0
	.byte	0
	.uleb128 0x48
	.uleb128 0x2
	.byte	0x1
	.uleb128 0x3
	.uleb128 0xe
	.uleb128 0x3c
	.uleb128 0x19
	.uleb128 0x1
	.uleb128 0x13
	.byte	0
	.byte	0
	.uleb128 0x49
	.uleb128 0x2e
	.byte	0x1
	.uleb128 0x3f
	.uleb128 0x19
	.uleb128 0x3
	.uleb128 0xe
	.uleb128 0x3a
	.uleb128 0xb
	.uleb128 0x3b
	.uleb128 0x5
	.uleb128 0x39
	.uleb128 0x21
	.sleb128 7
	.uleb128 0x6e
	.uleb128 0xe
	.uleb128 0x32
	.uleb128 0x21
	.sleb128 1
	.uleb128 0x3c
	.uleb128 0x19
	.uleb128 0x8b
	.uleb128 0x21
	.sleb128 1
	.uleb128 0x64
	.uleb128 0x13
	.uleb128 0x1
	.uleb128 0x13
	.byte	0
	.byte	0
	.uleb128 0x4a
	.uleb128 0x2f
	.byte	0
	.uleb128 0x3
	.uleb128 0xe
	.uleb128 0x49
	.uleb128 0x13
	.uleb128 0x1e
	.uleb128 0x19
	.byte	0
	.byte	0
	.uleb128 0x4b
	.uleb128 0x34
	.byte	0
	.uleb128 0x3
	.uleb128 0x8
	.uleb128 0x3a
	.uleb128 0x21
	.sleb128 41
	.uleb128 0x3b
	.uleb128 0x5
	.uleb128 0x39
	.uleb128 0x21
	.sleb128 33
	.uleb128 0x6e
	.uleb128 0xe
	.uleb128 0x49
	.uleb128 0x13
	.uleb128 0x3f
	.uleb128 0x19
	.uleb128 0x3c
	.uleb128 0x19
	.uleb128 0x1c
	.uleb128 0x21
	.sleb128 1
	.uleb128 0x6c
	.uleb128 0x19
	.uleb128 0x20
	.uleb128 0x21
	.sleb128 1
	.byte	0
	.byte	0
	.uleb128 0x4c
	.uleb128 0x2e
	.byte	0x1
	.uleb128 0x3f
	.uleb128 0x19
	.uleb128 0x3
	.uleb128 0xe
	.uleb128 0x3a
	.uleb128 0xb
	.uleb128 0x3b
	.uleb128 0x5
	.uleb128 0x39
	.uleb128 0xb
	.uleb128 0x6e
	.uleb128 0xe
	.uleb128 0x49
	.uleb128 0x13
	.uleb128 0x32
	.uleb128 0xb
	.uleb128 0x3c
	.uleb128 0x19
	.uleb128 0x1
	.uleb128 0x13
	.byte	0
	.byte	0
	.uleb128 0x4d
	.uleb128 0x2e
	.byte	0x1
	.uleb128 0x3f
	.uleb128 0x19
	.uleb128 0x3
	.uleb128 0xe
	.uleb128 0x3a
	.uleb128 0xb
	.uleb128 0x3b
	.uleb128 0x5
	.uleb128 0x39
	.uleb128 0xb
	.uleb128 0x6e
	.uleb128 0xe
	.uleb128 0x49
	.uleb128 0x13
	.uleb128 0x3c
	.uleb128 0x19
	.byte	0
	.byte	0
	.uleb128 0x4e
	.uleb128 0x2e
	.byte	0
	.uleb128 0x3f
	.uleb128 0x19
	.uleb128 0x3
	.uleb128 0xe
	.uleb128 0x3a
	.uleb128 0xb
	.uleb128 0x3b
	.uleb128 0x5
	.uleb128 0x39
	.uleb128 0xb
	.uleb128 0x49
	.uleb128 0x13
	.uleb128 0x3c
	.uleb128 0x19
	.byte	0
	.byte	0
	.uleb128 0x4f
	.uleb128 0x2e
	.byte	0
	.uleb128 0x3f
	.uleb128 0x19
	.uleb128 0x3
	.uleb128 0xe
	.uleb128 0x3a
	.uleb128 0xb
	.uleb128 0x3b
	.uleb128 0xb
	.uleb128 0x39
	.uleb128 0xb
	.uleb128 0x49
	.uleb128 0x13
	.uleb128 0x3c
	.uleb128 0x19
	.byte	0
	.byte	0
	.uleb128 0x50
	.uleb128 0xd
	.byte	0
	.uleb128 0x3
	.uleb128 0x8
	.uleb128 0x3a
	.uleb128 0x21
	.sleb128 57
	.uleb128 0x3b
	.uleb128 0xb
	.uleb128 0x39
	.uleb128 0xb
	.uleb128 0x49
	.uleb128 0x13
	.uleb128 0x38
	.uleb128 0xb
	.byte	0
	.byte	0
	.uleb128 0x51
	.uleb128 0x13
	.byte	0
	.uleb128 0x3
	.uleb128 0xe
	.uleb128 0x3c
	.uleb128 0x19
	.byte	0
	.byte	0
	.uleb128 0x52
	.uleb128 0xb
	.byte	0x1
	.uleb128 0x11
	.uleb128 0x1
	.uleb128 0x12
	.uleb128 0x7
	.byte	0
	.byte	0
	.uleb128 0x53
	.uleb128 0x5
	.byte	0
	.uleb128 0x3
	.uleb128 0x8
	.uleb128 0x3a
	.uleb128 0xb
	.uleb128 0x3b
	.uleb128 0xb
	.uleb128 0x39
	.uleb128 0xb
	.uleb128 0x49
	.uleb128 0x13
	.byte	0
	.byte	0
	.uleb128 0x54
	.uleb128 0x2e
	.byte	0x1
	.uleb128 0x3f
	.uleb128 0x19
	.uleb128 0x3
	.uleb128 0xe
	.uleb128 0x3a
	.uleb128 0x21
	.sleb128 4
	.uleb128 0x3b
	.uleb128 0xb
	.uleb128 0x39
	.uleb128 0x21
	.sleb128 5
	.uleb128 0x6e
	.uleb128 0xe
	.uleb128 0x49
	.uleb128 0x13
	.uleb128 0x11
	.uleb128 0x1
	.uleb128 0x12
	.uleb128 0x7
	.uleb128 0x40
	.uleb128 0x18
	.uleb128 0x7c
	.uleb128 0x19
	.uleb128 0x1
	.uleb128 0x13
	.byte	0
	.byte	0
	.uleb128 0x55
	.uleb128 0xd
	.byte	0
	.uleb128 0x3
	.uleb128 0xe
	.uleb128 0x3a
	.uleb128 0x21
	.sleb128 17
	.uleb128 0x3b
	.uleb128 0xb
	.uleb128 0x39
	.uleb128 0xb
	.uleb128 0x49
	.uleb128 0x13
	.byte	0
	.byte	0
	.uleb128 0x56
	.uleb128 0x30
	.byte	0
	.uleb128 0x3
	.uleb128 0x8
	.uleb128 0x49
	.uleb128 0x13
	.uleb128 0x1c
	.uleb128 0xb
	.byte	0
	.byte	0
	.uleb128 0x57
	.uleb128 0x2e
	.byte	0x1
	.uleb128 0x3f
	.uleb128 0x19
	.uleb128 0x3
	.uleb128 0xe
	.uleb128 0x3a
	.uleb128 0xb
	.uleb128 0x3b
	.uleb128 0xb
	.uleb128 0x39
	.uleb128 0xb
	.uleb128 0x6e
	.uleb128 0xe
	.uleb128 0x87
	.uleb128 0x19
	.uleb128 0x3c
	.uleb128 0x19
	.uleb128 0x1
	.uleb128 0x13
	.byte	0
	.byte	0
	.uleb128 0x58
	.uleb128 0x2e
	.byte	0x1
	.uleb128 0x3f
	.uleb128 0x19
	.uleb128 0x3
	.uleb128 0x8
	.uleb128 0x3a
	.uleb128 0x21
	.sleb128 27
	.uleb128 0x3b
	.uleb128 0x5
	.uleb128 0x39
	.uleb128 0x21
	.sleb128 7
	.uleb128 0x6e
	.uleb128 0xe
	.uleb128 0x49
	.uleb128 0x13
	.uleb128 0x3c
	.uleb128 0x19
	.uleb128 0x1
	.uleb128 0x13
	.byte	0
	.byte	0
	.uleb128 0x59
	.uleb128 0x39
	.byte	0
	.uleb128 0x3
	.uleb128 0xe
	.uleb128 0x3a
	.uleb128 0xb
	.uleb128 0x3b
	.uleb128 0x5
	.uleb128 0x39
	.uleb128 0xb
	.uleb128 0x89
	.uleb128 0x19
	.byte	0
	.byte	0
	.uleb128 0x5a
	.uleb128 0x2e
	.byte	0x1
	.uleb128 0x3f
	.uleb128 0x19
	.uleb128 0x3
	.uleb128 0xe
	.uleb128 0x3a
	.uleb128 0x21
	.sleb128 32
	.uleb128 0x3b
	.uleb128 0x5
	.uleb128 0x39
	.uleb128 0x21
	.sleb128 7
	.uleb128 0x6e
	.uleb128 0xe
	.uleb128 0x32
	.uleb128 0x21
	.sleb128 1
	.uleb128 0x3c
	.uleb128 0x19
	.uleb128 0x64
	.uleb128 0x13
	.uleb128 0x20
	.uleb128 0x21
	.sleb128 0
	.uleb128 0x1
	.uleb128 0x13
	.byte	0
	.byte	0
	.uleb128 0x5b
	.uleb128 0x2e
	.byte	0
	.uleb128 0x3f
	.uleb128 0x19
	.uleb128 0x3
	.uleb128 0xe
	.uleb128 0x3a
	.uleb128 0xb
	.uleb128 0x3b
	.uleb128 0x5
	.uleb128 0x39
	.uleb128 0xb
	.uleb128 0x6e
	.uleb128 0xe
	.uleb128 0x49
	.uleb128 0x13
	.uleb128 0x3c
	.uleb128 0x19
	.byte	0
	.byte	0
	.uleb128 0x5c
	.uleb128 0xd
	.byte	0
	.uleb128 0x3
	.uleb128 0x8
	.uleb128 0x3a
	.uleb128 0x21
	.sleb128 3
	.uleb128 0x3b
	.uleb128 0x5
	.uleb128 0x39
	.uleb128 0xb
	.uleb128 0x49
	.uleb128 0x13
	.uleb128 0x38
	.uleb128 0x21
	.sleb128 0
	.uleb128 0x32
	.uleb128 0x21
	.sleb128 3
	.byte	0
	.byte	0
	.uleb128 0x5d
	.uleb128 0x2e
	.byte	0x1
	.uleb128 0x3f
	.uleb128 0x19
	.uleb128 0x3
	.uleb128 0xe
	.uleb128 0x3a
	.uleb128 0x21
	.sleb128 3
	.uleb128 0x3b
	.uleb128 0x5
	.uleb128 0x39
	.uleb128 0xb
	.uleb128 0x6e
	.uleb128 0xe
	.uleb128 0x3c
	.uleb128 0x19
	.uleb128 0x63
	.uleb128 0x19
	.uleb128 0x64
	.uleb128 0x13
	.uleb128 0x1
	.uleb128 0x13
	.byte	0
	.byte	0
	.uleb128 0x5e
	.uleb128 0x2f
	.byte	0
	.uleb128 0x49
	.uleb128 0x13
	.byte	0
	.byte	0
	.uleb128 0x5f
	.uleb128 0x1c
	.byte	0
	.uleb128 0x49
	.uleb128 0x13
	.uleb128 0x38
	.uleb128 0x21
	.sleb128 0
	.uleb128 0x32
	.uleb128 0xb
	.byte	0
	.byte	0
	.uleb128 0x60
	.uleb128 0x2e
	.byte	0x1
	.uleb128 0x3f
	.uleb128 0x19
	.uleb128 0x3
	.uleb128 0xe
	.uleb128 0x3a
	.uleb128 0x21
	.sleb128 6
	.uleb128 0x3b
	.uleb128 0x5
	.uleb128 0x39
	.uleb128 0x21
	.sleb128 7
	.uleb128 0x6e
	.uleb128 0xe
	.uleb128 0x32
	.uleb128 0x21
	.sleb128 1
	.uleb128 0x3c
	.uleb128 0x19
	.uleb128 0x63
	.uleb128 0x19
	.uleb128 0x64
	.uleb128 0x13
	.uleb128 0x1
	.uleb128 0x13
	.byte	0
	.byte	0
	.uleb128 0x61
	.uleb128 0x2e
	.byte	0
	.uleb128 0x3f
	.uleb128 0x19
	.uleb128 0x3
	.uleb128 0xe
	.uleb128 0x3a
	.uleb128 0x21
	.sleb128 44
	.uleb128 0x3b
	.uleb128 0xb
	.uleb128 0x39
	.uleb128 0x21
	.sleb128 3
	.uleb128 0x6e
	.uleb128 0xe
	.uleb128 0x87
	.uleb128 0x19
	.uleb128 0x3c
	.uleb128 0x19
	.byte	0
	.byte	0
	.uleb128 0x62
	.uleb128 0x4107
	.byte	0
	.uleb128 0x3
	.uleb128 0xe
	.byte	0
	.byte	0
	.uleb128 0x63
	.uleb128 0x15
	.byte	0x1
	.uleb128 0x49
	.uleb128 0x13
	.uleb128 0x1
	.uleb128 0x13
	.byte	0
	.byte	0
	.uleb128 0x64
	.uleb128 0x34
	.byte	0
	.uleb128 0x3
	.uleb128 0x8
	.uleb128 0x3a
	.uleb128 0x21
	.sleb128 62
	.uleb128 0x3b
	.uleb128 0xb
	.uleb128 0x39
	.uleb128 0xb
	.uleb128 0x49
	.uleb128 0x13
	.uleb128 0x3c
	.uleb128 0x19
	.uleb128 0x1c
	.uleb128 0xa
	.uleb128 0x6c
	.uleb128 0x19
	.byte	0
	.byte	0
	.uleb128 0x65
	.uleb128 0x34
	.byte	0
	.uleb128 0x3
	.uleb128 0xe
	.uleb128 0x3a
	.uleb128 0x21
	.sleb128 62
	.uleb128 0x3b
	.uleb128 0xb
	.uleb128 0x39
	.uleb128 0xb
	.uleb128 0x49
	.uleb128 0x13
	.uleb128 0x3c
	.uleb128 0x19
	.uleb128 0x1c
	.uleb128 0xa
	.uleb128 0x6c
	.uleb128 0x19
	.byte	0
	.byte	0
	.uleb128 0x66
	.uleb128 0x2e
	.byte	0x1
	.uleb128 0x31
	.uleb128 0x13
	.uleb128 0x6e
	.uleb128 0xe
	.uleb128 0x64
	.uleb128 0x13
	.uleb128 0x1
	.uleb128 0x13
	.byte	0
	.byte	0
	.uleb128 0x67
	.uleb128 0x34
	.byte	0
	.uleb128 0x3
	.uleb128 0xe
	.uleb128 0x3a
	.uleb128 0x21
	.sleb128 9
	.uleb128 0x3b
	.uleb128 0x5
	.uleb128 0x39
	.uleb128 0x21
	.sleb128 22
	.uleb128 0x49
	.uleb128 0x13
	.uleb128 0x6c
	.uleb128 0x19
	.uleb128 0x2
	.uleb128 0x18
	.byte	0
	.byte	0
	.uleb128 0x68
	.uleb128 0x2e
	.byte	0x1
	.uleb128 0x47
	.uleb128 0x13
	.uleb128 0x64
	.uleb128 0x13
	.uleb128 0x1
	.uleb128 0x13
	.byte	0
	.byte	0
	.uleb128 0x69
	.uleb128 0x2e
	.byte	0x1
	.uleb128 0x47
	.uleb128 0x13
	.uleb128 0x1
	.uleb128 0x13
	.byte	0
	.byte	0
	.uleb128 0x6a
	.uleb128 0x11
	.byte	0x1
	.uleb128 0x25
	.uleb128 0xe
	.uleb128 0x13
	.uleb128 0xb
	.uleb128 0x3
	.uleb128 0x1f
	.uleb128 0x1b
	.uleb128 0x1f
	.uleb128 0x55
	.uleb128 0x17
	.uleb128 0x11
	.uleb128 0x1
	.uleb128 0x10
	.uleb128 0x17
	.byte	0
	.byte	0
	.uleb128 0x6b
	.uleb128 0x13
	.byte	0x1
	.uleb128 0x3
	.uleb128 0xe
	.uleb128 0xb
	.uleb128 0xb
	.uleb128 0x3a
	.uleb128 0xb
	.uleb128 0x3b
	.uleb128 0xb
	.uleb128 0x1
	.uleb128 0x13
	.byte	0
	.byte	0
	.uleb128 0x6c
	.uleb128 0xf
	.byte	0
	.uleb128 0xb
	.uleb128 0xb
	.byte	0
	.byte	0
	.uleb128 0x6d
	.uleb128 0x17
	.byte	0x1
	.uleb128 0xb
	.uleb128 0xb
	.uleb128 0x3a
	.uleb128 0xb
	.uleb128 0x3b
	.uleb128 0xb
	.uleb128 0x39
	.uleb128 0xb
	.uleb128 0x1
	.uleb128 0x13
	.byte	0
	.byte	0
	.uleb128 0x6e
	.uleb128 0x24
	.byte	0
	.uleb128 0xb
	.uleb128 0xb
	.uleb128 0x3e
	.uleb128 0xb
	.uleb128 0x3
	.uleb128 0x8
	.byte	0
	.byte	0
	.uleb128 0x6f
	.uleb128 0x39
	.byte	0x1
	.uleb128 0x3
	.uleb128 0x8
	.uleb128 0x3a
	.uleb128 0xb
	.uleb128 0x3b
	.uleb128 0x5
	.uleb128 0x39
	.uleb128 0xb
	.uleb128 0x1
	.uleb128 0x13
	.byte	0
	.byte	0
	.uleb128 0x70
	.uleb128 0x4
	.byte	0
	.uleb128 0x3
	.uleb128 0xe
	.uleb128 0x6d
	.uleb128 0x19
	.uleb128 0x3e
	.uleb128 0xb
	.uleb128 0xb
	.uleb128 0xb
	.uleb128 0x49
	.uleb128 0x13
	.uleb128 0x3a
	.uleb128 0xb
	.uleb128 0x3b
	.uleb128 0xb
	.uleb128 0x39
	.uleb128 0xb
	.byte	0
	.byte	0
	.uleb128 0x71
	.uleb128 0x2e
	.byte	0x1
	.uleb128 0x3f
	.uleb128 0x19
	.uleb128 0x3
	.uleb128 0xe
	.uleb128 0x3a
	.uleb128 0xb
	.uleb128 0x3b
	.uleb128 0xb
	.uleb128 0x39
	.uleb128 0xb
	.uleb128 0x6e
	.uleb128 0xe
	.uleb128 0x3c
	.uleb128 0x19
	.uleb128 0x63
	.uleb128 0x19
	.uleb128 0x64
	.uleb128 0x13
	.uleb128 0x1
	.uleb128 0x13
	.byte	0
	.byte	0
	.uleb128 0x72
	.uleb128 0x2e
	.byte	0x1
	.uleb128 0x3f
	.uleb128 0x19
	.uleb128 0x3
	.uleb128 0xe
	.uleb128 0x3a
	.uleb128 0xb
	.uleb128 0x3b
	.uleb128 0xb
	.uleb128 0x39
	.uleb128 0xb
	.uleb128 0x6e
	.uleb128 0xe
	.uleb128 0x49
	.uleb128 0x13
	.uleb128 0x32
	.uleb128 0xb
	.uleb128 0x3c
	.uleb128 0x19
	.uleb128 0x63
	.uleb128 0x19
	.uleb128 0x64
	.uleb128 0x13
	.uleb128 0x1
	.uleb128 0x13
	.byte	0
	.byte	0
	.uleb128 0x73
	.uleb128 0x2e
	.byte	0x1
	.uleb128 0x3f
	.uleb128 0x19
	.uleb128 0x3
	.uleb128 0xe
	.uleb128 0x3a
	.uleb128 0xb
	.uleb128 0x3b
	.uleb128 0xb
	.uleb128 0x39
	.uleb128 0xb
	.uleb128 0x6e
	.uleb128 0xe
	.uleb128 0x49
	.uleb128 0x13
	.uleb128 0x32
	.uleb128 0xb
	.uleb128 0x3c
	.uleb128 0x19
	.uleb128 0x64
	.uleb128 0x13
	.byte	0
	.byte	0
	.uleb128 0x74
	.uleb128 0x13
	.byte	0
	.uleb128 0x3
	.uleb128 0xe
	.uleb128 0xb
	.uleb128 0xb
	.uleb128 0x3a
	.uleb128 0xb
	.uleb128 0x3b
	.uleb128 0xb
	.uleb128 0x39
	.uleb128 0xb
	.byte	0
	.byte	0
	.uleb128 0x75
	.uleb128 0x2e
	.byte	0x1
	.uleb128 0x3f
	.uleb128 0x19
	.uleb128 0x3
	.uleb128 0xe
	.uleb128 0x3a
	.uleb128 0xb
	.uleb128 0x3b
	.uleb128 0xb
	.uleb128 0x39
	.uleb128 0xb
	.uleb128 0x6e
	.uleb128 0xe
	.uleb128 0x3c
	.uleb128 0x19
	.byte	0
	.byte	0
	.uleb128 0x76
	.uleb128 0x39
	.byte	0
	.uleb128 0x3
	.uleb128 0x8
	.uleb128 0x3a
	.uleb128 0xb
	.uleb128 0x3b
	.uleb128 0xb
	.uleb128 0x39
	.uleb128 0xb
	.uleb128 0x89
	.uleb128 0x19
	.byte	0
	.byte	0
	.uleb128 0x77
	.uleb128 0x2
	.byte	0x1
	.uleb128 0x3
	.uleb128 0xe
	.uleb128 0xb
	.uleb128 0xb
	.uleb128 0x3a
	.uleb128 0xb
	.uleb128 0x3b
	.uleb128 0x5
	.uleb128 0x39
	.uleb128 0xb
	.uleb128 0x32
	.uleb128 0xb
	.uleb128 0x1
	.uleb128 0x13
	.byte	0
	.byte	0
	.uleb128 0x78
	.uleb128 0x2e
	.byte	0x1
	.uleb128 0x3f
	.uleb128 0x19
	.uleb128 0x3
	.uleb128 0xe
	.uleb128 0x3a
	.uleb128 0xb
	.uleb128 0x3b
	.uleb128 0x5
	.uleb128 0x39
	.uleb128 0xb
	.uleb128 0x6e
	.uleb128 0xe
	.uleb128 0x49
	.uleb128 0x13
	.uleb128 0x32
	.uleb128 0xb
	.uleb128 0x3c
	.uleb128 0x19
	.uleb128 0x8b
	.uleb128 0xb
	.uleb128 0x64
	.uleb128 0x13
	.byte	0
	.byte	0
	.uleb128 0x79
	.uleb128 0x34
	.byte	0
	.uleb128 0x3
	.uleb128 0x8
	.uleb128 0x3a
	.uleb128 0xb
	.uleb128 0x3b
	.uleb128 0xb
	.uleb128 0x39
	.uleb128 0xb
	.uleb128 0x6e
	.uleb128 0xe
	.uleb128 0x49
	.uleb128 0x13
	.uleb128 0x3f
	.uleb128 0x19
	.uleb128 0x3c
	.uleb128 0x19
	.byte	0
	.byte	0
	.uleb128 0x7a
	.uleb128 0x34
	.byte	0
	.uleb128 0x3
	.uleb128 0xe
	.uleb128 0x3a
	.uleb128 0xb
	.uleb128 0x3b
	.uleb128 0xb
	.uleb128 0x39
	.uleb128 0xb
	.uleb128 0x6e
	.uleb128 0xe
	.uleb128 0x49
	.uleb128 0x13
	.uleb128 0x3f
	.uleb128 0x19
	.uleb128 0x3c
	.uleb128 0x19
	.byte	0
	.byte	0
	.uleb128 0x7b
	.uleb128 0x34
	.byte	0
	.uleb128 0x3
	.uleb128 0xe
	.uleb128 0x3a
	.uleb128 0xb
	.uleb128 0x3b
	.uleb128 0xb
	.uleb128 0x39
	.uleb128 0xb
	.uleb128 0x49
	.uleb128 0x13
	.uleb128 0x3c
	.uleb128 0x19
	.byte	0
	.byte	0
	.uleb128 0x7c
	.uleb128 0x34
	.byte	0
	.uleb128 0x3
	.uleb128 0x8
	.uleb128 0x3a
	.uleb128 0xb
	.uleb128 0x3b
	.uleb128 0x5
	.uleb128 0x39
	.uleb128 0xb
	.uleb128 0x6e
	.uleb128 0xe
	.uleb128 0x49
	.uleb128 0x13
	.uleb128 0x3f
	.uleb128 0x19
	.uleb128 0x3c
	.uleb128 0x19
	.uleb128 0x1c
	.uleb128 0x6
	.uleb128 0x6c
	.uleb128 0x19
	.uleb128 0x20
	.uleb128 0xb
	.byte	0
	.byte	0
	.uleb128 0x7d
	.uleb128 0x30
	.byte	0
	.uleb128 0x3
	.uleb128 0xe
	.uleb128 0x49
	.uleb128 0x13
	.uleb128 0x1c
	.uleb128 0x6
	.byte	0
	.byte	0
	.uleb128 0x7e
	.uleb128 0x2e
	.byte	0x1
	.uleb128 0x3f
	.uleb128 0x19
	.uleb128 0x3
	.uleb128 0xe
	.uleb128 0x3a
	.uleb128 0xb
	.uleb128 0x3b
	.uleb128 0x5
	.uleb128 0x39
	.uleb128 0xb
	.uleb128 0x6e
	.uleb128 0xe
	.uleb128 0x49
	.uleb128 0x13
	.uleb128 0x3c
	.uleb128 0x19
	.uleb128 0x8b
	.uleb128 0xb
	.uleb128 0x64
	.uleb128 0x13
	.uleb128 0x1
	.uleb128 0x13
	.byte	0
	.byte	0
	.uleb128 0x7f
	.uleb128 0x16
	.byte	0
	.uleb128 0x3
	.uleb128 0x8
	.uleb128 0x3a
	.uleb128 0xb
	.uleb128 0x3b
	.uleb128 0x5
	.uleb128 0x39
	.uleb128 0xb
	.uleb128 0x49
	.uleb128 0x13
	.byte	0
	.byte	0
	.uleb128 0x80
	.uleb128 0x39
	.byte	0x1
	.uleb128 0x3
	.uleb128 0x8
	.uleb128 0x3a
	.uleb128 0xb
	.uleb128 0x3b
	.uleb128 0x5
	.uleb128 0x39
	.uleb128 0xb
	.uleb128 0x89
	.uleb128 0x19
	.uleb128 0x1
	.uleb128 0x13
	.byte	0
	.byte	0
	.uleb128 0x81
	.uleb128 0x13
	.byte	0x1
	.uleb128 0x3
	.uleb128 0xe
	.uleb128 0xb
	.uleb128 0xb
	.uleb128 0x3a
	.uleb128 0xb
	.uleb128 0x3b
	.uleb128 0x5
	.uleb128 0x39
	.uleb128 0xb
	.byte	0
	.byte	0
	.uleb128 0x82
	.uleb128 0x34
	.byte	0
	.uleb128 0x3
	.uleb128 0xe
	.uleb128 0x3a
	.uleb128 0xb
	.uleb128 0x3b
	.uleb128 0x5
	.uleb128 0x39
	.uleb128 0xb
	.uleb128 0x6e
	.uleb128 0xe
	.uleb128 0x49
	.uleb128 0x13
	.uleb128 0x3f
	.uleb128 0x19
	.uleb128 0x3c
	.uleb128 0x19
	.uleb128 0x1c
	.uleb128 0xb
	.uleb128 0x6c
	.uleb128 0x19
	.uleb128 0x20
	.uleb128 0xb
	.byte	0
	.byte	0
	.uleb128 0x83
	.uleb128 0x3a
	.byte	0
	.uleb128 0x3a
	.uleb128 0xb
	.uleb128 0x3b
	.uleb128 0x5
	.uleb128 0x39
	.uleb128 0xb
	.uleb128 0x18
	.uleb128 0x13
	.byte	0
	.byte	0
	.uleb128 0x84
	.uleb128 0x4107
	.byte	0x1
	.uleb128 0x3
	.uleb128 0x8
	.byte	0
	.byte	0
	.uleb128 0x85
	.uleb128 0x30
	.byte	0
	.uleb128 0x3
	.uleb128 0xe
	.uleb128 0x49
	.uleb128 0x13
	.uleb128 0x1e
	.uleb128 0x19
	.uleb128 0x1c
	.uleb128 0xb
	.byte	0
	.byte	0
	.uleb128 0x86
	.uleb128 0x39
	.byte	0x1
	.uleb128 0x3
	.uleb128 0xe
	.uleb128 0x3a
	.uleb128 0xb
	.uleb128 0x3b
	.uleb128 0x5
	.uleb128 0x39
	.uleb128 0xb
	.uleb128 0x89
	.uleb128 0x19
	.uleb128 0x1
	.uleb128 0x13
	.byte	0
	.byte	0
	.uleb128 0x87
	.uleb128 0x2e
	.byte	0x1
	.uleb128 0x3f
	.uleb128 0x19
	.uleb128 0x3
	.uleb128 0xe
	.uleb128 0x3a
	.uleb128 0xb
	.uleb128 0x3b
	.uleb128 0xb
	.uleb128 0x39
	.uleb128 0xb
	.uleb128 0x6e
	.uleb128 0xe
	.uleb128 0x49
	.uleb128 0x13
	.uleb128 0x32
	.uleb128 0xb
	.uleb128 0x3c
	.uleb128 0x19
	.uleb128 0x8b
	.uleb128 0xb
	.uleb128 0x64
	.uleb128 0x13
	.uleb128 0x1
	.uleb128 0x13
	.byte	0
	.byte	0
	.uleb128 0x88
	.uleb128 0x2e
	.byte	0x1
	.uleb128 0x3f
	.uleb128 0x19
	.uleb128 0x3
	.uleb128 0xe
	.uleb128 0x3a
	.uleb128 0xb
	.uleb128 0x3b
	.uleb128 0xb
	.uleb128 0x39
	.uleb128 0xb
	.uleb128 0x6e
	.uleb128 0xe
	.uleb128 0x32
	.uleb128 0xb
	.uleb128 0x3c
	.uleb128 0x19
	.uleb128 0x64
	.uleb128 0x13
	.byte	0
	.byte	0
	.uleb128 0x89
	.uleb128 0x2e
	.byte	0x1
	.uleb128 0x3f
	.uleb128 0x19
	.uleb128 0x3
	.uleb128 0xe
	.uleb128 0x3a
	.uleb128 0xb
	.uleb128 0x3b
	.uleb128 0xb
	.uleb128 0x39
	.uleb128 0xb
	.uleb128 0x6e
	.uleb128 0xe
	.uleb128 0x3c
	.uleb128 0x19
	.uleb128 0x64
	.uleb128 0x13
	.byte	0
	.byte	0
	.uleb128 0x8a
	.uleb128 0x2e
	.byte	0x1
	.uleb128 0x3f
	.uleb128 0x19
	.uleb128 0x3
	.uleb128 0xe
	.uleb128 0x6e
	.uleb128 0xe
	.uleb128 0x34
	.uleb128 0x19
	.uleb128 0x3c
	.uleb128 0x19
	.uleb128 0x64
	.uleb128 0x13
	.byte	0
	.byte	0
	.uleb128 0x8b
	.uleb128 0xd
	.byte	0
	.uleb128 0x3
	.uleb128 0xe
	.uleb128 0x3a
	.uleb128 0xb
	.uleb128 0x3b
	.uleb128 0x5
	.uleb128 0x39
	.uleb128 0xb
	.uleb128 0x49
	.uleb128 0x13
	.uleb128 0x38
	.uleb128 0xb
	.byte	0
	.byte	0
	.uleb128 0x8c
	.uleb128 0x2
	.byte	0x1
	.uleb128 0x3
	.uleb128 0xe
	.uleb128 0xb
	.uleb128 0xb
	.uleb128 0x3a
	.uleb128 0xb
	.uleb128 0x3b
	.uleb128 0x5
	.uleb128 0x39
	.uleb128 0xb
	.uleb128 0x1
	.uleb128 0x13
	.byte	0
	.byte	0
	.uleb128 0x8d
	.uleb128 0x2e
	.byte	0x1
	.uleb128 0x3f
	.uleb128 0x19
	.uleb128 0x3
	.uleb128 0x8
	.uleb128 0x3a
	.uleb128 0xb
	.uleb128 0x3b
	.uleb128 0xb
	.uleb128 0x39
	.uleb128 0xb
	.uleb128 0x6e
	.uleb128 0xe
	.uleb128 0x49
	.uleb128 0x13
	.uleb128 0x32
	.uleb128 0xb
	.uleb128 0x3c
	.uleb128 0x19
	.uleb128 0x64
	.uleb128 0x13
	.uleb128 0x1
	.uleb128 0x13
	.byte	0
	.byte	0
	.uleb128 0x8e
	.uleb128 0x13
	.byte	0x1
	.uleb128 0x3
	.uleb128 0x8
	.uleb128 0xb
	.uleb128 0xb
	.uleb128 0x3a
	.uleb128 0xb
	.uleb128 0x3b
	.uleb128 0xb
	.uleb128 0x39
	.uleb128 0xb
	.uleb128 0x1
	.uleb128 0x13
	.byte	0
	.byte	0
	.uleb128 0x8f
	.uleb128 0x39
	.byte	0x1
	.uleb128 0x3
	.uleb128 0xe
	.uleb128 0x3a
	.uleb128 0xb
	.uleb128 0x3b
	.uleb128 0x5
	.uleb128 0x39
	.uleb128 0xb
	.uleb128 0x1
	.uleb128 0x13
	.byte	0
	.byte	0
	.uleb128 0x90
	.uleb128 0x2e
	.byte	0x1
	.uleb128 0x3f
	.uleb128 0x19
	.uleb128 0x3
	.uleb128 0x8
	.uleb128 0x3a
	.uleb128 0xb
	.uleb128 0x3b
	.uleb128 0xb
	.uleb128 0x39
	.uleb128 0xb
	.uleb128 0x6e
	.uleb128 0xe
	.uleb128 0x49
	.uleb128 0x13
	.uleb128 0x3c
	.uleb128 0x19
	.uleb128 0x1
	.uleb128 0x13
	.byte	0
	.byte	0
	.uleb128 0x91
	.uleb128 0x3b
	.byte	0
	.uleb128 0x3
	.uleb128 0xe
	.byte	0
	.byte	0
	.uleb128 0x92
	.uleb128 0x3a
	.byte	0
	.uleb128 0x3a
	.uleb128 0xb
	.uleb128 0x3b
	.uleb128 0xb
	.uleb128 0x39
	.uleb128 0xb
	.uleb128 0x18
	.uleb128 0x13
	.byte	0
	.byte	0
	.uleb128 0x93
	.uleb128 0x26
	.byte	0
	.byte	0
	.byte	0
	.uleb128 0x94
	.uleb128 0x15
	.byte	0
	.byte	0
	.byte	0
	.uleb128 0x95
	.uleb128 0x2e
	.byte	0x1
	.uleb128 0x3f
	.uleb128 0x19
	.uleb128 0x3
	.uleb128 0x8
	.uleb128 0x3a
	.uleb128 0xb
	.uleb128 0x3b
	.uleb128 0x5
	.uleb128 0x39
	.uleb128 0xb
	.uleb128 0x49
	.uleb128 0x13
	.uleb128 0x3c
	.uleb128 0x19
	.uleb128 0x1
	.uleb128 0x13
	.byte	0
	.byte	0
	.uleb128 0x96
	.uleb128 0x2e
	.byte	0x1
	.uleb128 0x3f
	.uleb128 0x19
	.uleb128 0x3
	.uleb128 0xe
	.uleb128 0x3a
	.uleb128 0xb
	.uleb128 0x3b
	.uleb128 0x5
	.uleb128 0x39
	.uleb128 0xb
	.uleb128 0x87
	.uleb128 0x19
	.uleb128 0x3c
	.uleb128 0x19
	.uleb128 0x1
	.uleb128 0x13
	.byte	0
	.byte	0
	.uleb128 0x97
	.uleb128 0x16
	.byte	0
	.uleb128 0x3
	.uleb128 0xe
	.uleb128 0x3a
	.uleb128 0xb
	.uleb128 0x3b
	.uleb128 0xb
	.uleb128 0x39
	.uleb128 0xb
	.byte	0
	.byte	0
	.uleb128 0x98
	.uleb128 0x34
	.byte	0
	.uleb128 0x47
	.uleb128 0x13
	.uleb128 0x2
	.uleb128 0x18
	.byte	0
	.byte	0
	.uleb128 0x99
	.uleb128 0x39
	.byte	0x1
	.uleb128 0x3
	.uleb128 0xe
	.uleb128 0x3a
	.uleb128 0xb
	.uleb128 0x3b
	.uleb128 0xb
	.uleb128 0x39
	.uleb128 0xb
	.byte	0
	.byte	0
	.uleb128 0x9a
	.uleb128 0x39
	.byte	0x1
	.uleb128 0x3
	.uleb128 0x8
	.uleb128 0x3a
	.uleb128 0xb
	.uleb128 0x3b
	.uleb128 0xb
	.uleb128 0x39
	.uleb128 0xb
	.uleb128 0x89
	.uleb128 0x19
	.byte	0
	.byte	0
	.uleb128 0x9b
	.uleb128 0x34
	.byte	0
	.uleb128 0x3
	.uleb128 0xe
	.uleb128 0x49
	.uleb128 0x13
	.uleb128 0x3f
	.uleb128 0x19
	.uleb128 0x34
	.uleb128 0x19
	.uleb128 0x3c
	.uleb128 0x19
	.byte	0
	.byte	0
	.uleb128 0x9c
	.uleb128 0x2e
	.byte	0
	.uleb128 0x3
	.uleb128 0xe
	.uleb128 0x34
	.uleb128 0x19
	.uleb128 0x11
	.uleb128 0x1
	.uleb128 0x12
	.uleb128 0x7
	.uleb128 0x40
	.uleb128 0x18
	.uleb128 0x7c
	.uleb128 0x19
	.byte	0
	.byte	0
	.uleb128 0x9d
	.uleb128 0x2e
	.byte	0x1
	.uleb128 0x3
	.uleb128 0xe
	.uleb128 0x34
	.uleb128 0x19
	.uleb128 0x11
	.uleb128 0x1
	.uleb128 0x12
	.uleb128 0x7
	.uleb128 0x40
	.uleb128 0x18
	.uleb128 0x7c
	.uleb128 0x19
	.uleb128 0x1
	.uleb128 0x13
	.byte	0
	.byte	0
	.uleb128 0x9e
	.uleb128 0x4108
	.byte	0
	.uleb128 0x3a
	.uleb128 0xb
	.uleb128 0x3b
	.uleb128 0xb
	.uleb128 0x39
	.uleb128 0xb
	.byte	0
	.byte	0
	.uleb128 0x9f
	.uleb128 0xb
	.byte	0x1
	.byte	0
	.byte	0
	.uleb128 0xa0
	.uleb128 0x34
	.byte	0
	.uleb128 0x3
	.uleb128 0xe
	.uleb128 0x3a
	.uleb128 0xb
	.uleb128 0x3b
	.uleb128 0xb
	.uleb128 0x39
	.uleb128 0xb
	.uleb128 0x49
	.uleb128 0x13
	.byte	0
	.byte	0
	.uleb128 0xa1
	.uleb128 0x2e
	.byte	0x1
	.uleb128 0x47
	.uleb128 0x13
	.uleb128 0x3a
	.uleb128 0xb
	.uleb128 0x3b
	.uleb128 0xb
	.uleb128 0x39
	.uleb128 0xb
	.uleb128 0x64
	.uleb128 0x13
	.uleb128 0x20
	.uleb128 0xb
	.uleb128 0x1
	.uleb128 0x13
	.byte	0
	.byte	0
	.uleb128 0xa2
	.uleb128 0x5
	.byte	0
	.uleb128 0x3
	.uleb128 0xe
	.uleb128 0x3a
	.uleb128 0xb
	.uleb128 0x3b
	.uleb128 0xb
	.uleb128 0x39
	.uleb128 0xb
	.uleb128 0x49
	.uleb128 0x13
	.byte	0
	.byte	0
	.uleb128 0xa3
	.uleb128 0x2e
	.byte	0x1
	.uleb128 0x3f
	.uleb128 0x19
	.uleb128 0x3
	.uleb128 0xe
	.uleb128 0x3a
	.uleb128 0xb
	.uleb128 0x3b
	.uleb128 0xb
	.uleb128 0x39
	.uleb128 0xb
	.uleb128 0x49
	.uleb128 0x13
	.uleb128 0x11
	.uleb128 0x1
	.uleb128 0x12
	.uleb128 0x7
	.uleb128 0x40
	.uleb128 0x18
	.uleb128 0x7c
	.uleb128 0x19
	.uleb128 0x1
	.uleb128 0x13
	.byte	0
	.byte	0
	.uleb128 0xa4
	.uleb128 0x2e
	.byte	0x1
	.uleb128 0x3f
	.uleb128 0x19
	.uleb128 0x3
	.uleb128 0x8
	.uleb128 0x3a
	.uleb128 0xb
	.uleb128 0x3b
	.uleb128 0xb
	.uleb128 0x39
	.uleb128 0xb
	.uleb128 0x6e
	.uleb128 0xe
	.uleb128 0x49
	.uleb128 0x13
	.uleb128 0x11
	.uleb128 0x1
	.uleb128 0x12
	.uleb128 0x7
	.uleb128 0x40
	.uleb128 0x18
	.uleb128 0x7c
	.uleb128 0x19
	.uleb128 0x1
	.uleb128 0x13
	.byte	0
	.byte	0
	.uleb128 0xa5
	.uleb128 0x2e
	.byte	0x1
	.uleb128 0x3f
	.uleb128 0x19
	.uleb128 0x3
	.uleb128 0xe
	.uleb128 0x3a
	.uleb128 0xb
	.uleb128 0x3b
	.uleb128 0xb
	.uleb128 0x39
	.uleb128 0xb
	.uleb128 0x6e
	.uleb128 0xe
	.uleb128 0x49
	.uleb128 0x13
	.uleb128 0x11
	.uleb128 0x1
	.uleb128 0x12
	.uleb128 0x7
	.uleb128 0x40
	.uleb128 0x18
	.uleb128 0x7a
	.uleb128 0x19
	.byte	0
	.byte	0
	.byte	0
	.section	.debug_aranges,"",@progbits
	.long	0x3ac
	.value	0x2
	.long	.Ldebug_info0
	.byte	0x8
	.byte	0
	.value	0
	.value	0
	.quad	.Ltext0
	.quad	.Letext0-.Ltext0
	.quad	.LFB38
	.quad	.LFE38-.LFB38
	.quad	.LFB371
	.quad	.LFE371-.LFB371
	.quad	.LFB2704
	.quad	.LFE2704-.LFB2704
	.quad	.LFB3443
	.quad	.LFE3443-.LFB3443
	.quad	.LFB3448
	.quad	.LFE3448-.LFB3448
	.quad	.LFB3478
	.quad	.LFE3478-.LFB3478
	.quad	.LFB3479
	.quad	.LFE3479-.LFB3479
	.quad	.LFB3480
	.quad	.LFE3480-.LFB3480
	.quad	.LFB3481
	.quad	.LFE3481-.LFB3481
	.quad	.LFB3777
	.quad	.LFE3777-.LFB3777
	.quad	.LFB3780
	.quad	.LFE3780-.LFB3780
	.quad	.LFB3783
	.quad	.LFE3783-.LFB3783
	.quad	.LFB3786
	.quad	.LFE3786-.LFB3786
	.quad	.LFB3788
	.quad	.LFE3788-.LFB3788
	.quad	.LFB3790
	.quad	.LFE3790-.LFB3790
	.quad	.LFB3795
	.quad	.LFE3795-.LFB3795
	.quad	.LFB3887
	.quad	.LFE3887-.LFB3887
	.quad	.LFB3890
	.quad	.LFE3890-.LFB3890
	.quad	.LFB3892
	.quad	.LFE3892-.LFB3892
	.quad	.LFB3895
	.quad	.LFE3895-.LFB3895
	.quad	.LFB3897
	.quad	.LFE3897-.LFB3897
	.quad	.LFB3900
	.quad	.LFE3900-.LFB3900
	.quad	.LFB3902
	.quad	.LFE3902-.LFB3902
	.quad	.LFB3903
	.quad	.LFE3903-.LFB3903
	.quad	.LFB3904
	.quad	.LFE3904-.LFB3904
	.quad	.LFB3905
	.quad	.LFE3905-.LFB3905
	.quad	.LFB3946
	.quad	.LFE3946-.LFB3946
	.quad	.LFB3948
	.quad	.LFE3948-.LFB3948
	.quad	.LFB3951
	.quad	.LFE3951-.LFB3951
	.quad	.LFB3953
	.quad	.LFE3953-.LFB3953
	.quad	.LFB3954
	.quad	.LFE3954-.LFB3954
	.quad	.LFB3955
	.quad	.LFE3955-.LFB3955
	.quad	.LFB3956
	.quad	.LFE3956-.LFB3956
	.quad	.LFB3958
	.quad	.LFE3958-.LFB3958
	.quad	.LFB4005
	.quad	.LFE4005-.LFB4005
	.quad	.LFB4007
	.quad	.LFE4007-.LFB4007
	.quad	.LFB4010
	.quad	.LFE4010-.LFB4010
	.quad	.LFB4012
	.quad	.LFE4012-.LFB4012
	.quad	.LFB4013
	.quad	.LFE4013-.LFB4013
	.quad	.LFB4014
	.quad	.LFE4014-.LFB4014
	.quad	.LFB4015
	.quad	.LFE4015-.LFB4015
	.quad	.LFB4016
	.quad	.LFE4016-.LFB4016
	.quad	.LFB4061
	.quad	.LFE4061-.LFB4061
	.quad	.LFB4062
	.quad	.LFE4062-.LFB4062
	.quad	.LFB4063
	.quad	.LFE4063-.LFB4063
	.quad	.LFB4065
	.quad	.LFE4065-.LFB4065
	.quad	.LFB4064
	.quad	.LFE4064-.LFB4064
	.quad	.LFB4066
	.quad	.LFE4066-.LFB4066
	.quad	.LFB4091
	.quad	.LFE4091-.LFB4091
	.quad	.LFB4092
	.quad	.LFE4092-.LFB4092
	.quad	.LFB4093
	.quad	.LFE4093-.LFB4093
	.quad	.LFB4094
	.quad	.LFE4094-.LFB4094
	.quad	.LFB4107
	.quad	.LFE4107-.LFB4107
	.quad	.LFB4108
	.quad	.LFE4108-.LFB4108
	.quad	.LFB4111
	.quad	.LFE4111-.LFB4111
	.quad	.LFB4112
	.quad	.LFE4112-.LFB4112
	.quad	0
	.quad	0
	.section	.debug_rnglists,"",@progbits
.Ldebug_ranges0:
	.long	.Ldebug_ranges3-.Ldebug_ranges2
.Ldebug_ranges2:
	.value	0x5
	.byte	0x8
	.byte	0
	.long	0
.LLRL0:
	.byte	0x7
	.quad	.Ltext0
	.uleb128 .Letext0-.Ltext0
	.byte	0x7
	.quad	.LFB38
	.uleb128 .LFE38-.LFB38
	.byte	0x7
	.quad	.LFB371
	.uleb128 .LFE371-.LFB371
	.byte	0x7
	.quad	.LFB2704
	.uleb128 .LFE2704-.LFB2704
	.byte	0x7
	.quad	.LFB3443
	.uleb128 .LFE3443-.LFB3443
	.byte	0x7
	.quad	.LFB3448
	.uleb128 .LFE3448-.LFB3448
	.byte	0x7
	.quad	.LFB3478
	.uleb128 .LFE3478-.LFB3478
	.byte	0x7
	.quad	.LFB3479
	.uleb128 .LFE3479-.LFB3479
	.byte	0x7
	.quad	.LFB3480
	.uleb128 .LFE3480-.LFB3480
	.byte	0x7
	.quad	.LFB3481
	.uleb128 .LFE3481-.LFB3481
	.byte	0x7
	.quad	.LFB3777
	.uleb128 .LFE3777-.LFB3777
	.byte	0x7
	.quad	.LFB3780
	.uleb128 .LFE3780-.LFB3780
	.byte	0x7
	.quad	.LFB3783
	.uleb128 .LFE3783-.LFB3783
	.byte	0x7
	.quad	.LFB3786
	.uleb128 .LFE3786-.LFB3786
	.byte	0x7
	.quad	.LFB3788
	.uleb128 .LFE3788-.LFB3788
	.byte	0x7
	.quad	.LFB3790
	.uleb128 .LFE3790-.LFB3790
	.byte	0x7
	.quad	.LFB3795
	.uleb128 .LFE3795-.LFB3795
	.byte	0x7
	.quad	.LFB3887
	.uleb128 .LFE3887-.LFB3887
	.byte	0x7
	.quad	.LFB3890
	.uleb128 .LFE3890-.LFB3890
	.byte	0x7
	.quad	.LFB3892
	.uleb128 .LFE3892-.LFB3892
	.byte	0x7
	.quad	.LFB3895
	.uleb128 .LFE3895-.LFB3895
	.byte	0x7
	.quad	.LFB3897
	.uleb128 .LFE3897-.LFB3897
	.byte	0x7
	.quad	.LFB3900
	.uleb128 .LFE3900-.LFB3900
	.byte	0x7
	.quad	.LFB3902
	.uleb128 .LFE3902-.LFB3902
	.byte	0x7
	.quad	.LFB3903
	.uleb128 .LFE3903-.LFB3903
	.byte	0x7
	.quad	.LFB3904
	.uleb128 .LFE3904-.LFB3904
	.byte	0x7
	.quad	.LFB3905
	.uleb128 .LFE3905-.LFB3905
	.byte	0x7
	.quad	.LFB3946
	.uleb128 .LFE3946-.LFB3946
	.byte	0x7
	.quad	.LFB3948
	.uleb128 .LFE3948-.LFB3948
	.byte	0x7
	.quad	.LFB3951
	.uleb128 .LFE3951-.LFB3951
	.byte	0x7
	.quad	.LFB3953
	.uleb128 .LFE3953-.LFB3953
	.byte	0x7
	.quad	.LFB3954
	.uleb128 .LFE3954-.LFB3954
	.byte	0x7
	.quad	.LFB3955
	.uleb128 .LFE3955-.LFB3955
	.byte	0x7
	.quad	.LFB3956
	.uleb128 .LFE3956-.LFB3956
	.byte	0x7
	.quad	.LFB3958
	.uleb128 .LFE3958-.LFB3958
	.byte	0x7
	.quad	.LFB4005
	.uleb128 .LFE4005-.LFB4005
	.byte	0x7
	.quad	.LFB4007
	.uleb128 .LFE4007-.LFB4007
	.byte	0x7
	.quad	.LFB4010
	.uleb128 .LFE4010-.LFB4010
	.byte	0x7
	.quad	.LFB4012
	.uleb128 .LFE4012-.LFB4012
	.byte	0x7
	.quad	.LFB4013
	.uleb128 .LFE4013-.LFB4013
	.byte	0x7
	.quad	.LFB4014
	.uleb128 .LFE4014-.LFB4014
	.byte	0x7
	.quad	.LFB4015
	.uleb128 .LFE4015-.LFB4015
	.byte	0x7
	.quad	.LFB4016
	.uleb128 .LFE4016-.LFB4016
	.byte	0x7
	.quad	.LFB4061
	.uleb128 .LFE4061-.LFB4061
	.byte	0x7
	.quad	.LFB4062
	.uleb128 .LFE4062-.LFB4062
	.byte	0x7
	.quad	.LFB4063
	.uleb128 .LFE4063-.LFB4063
	.byte	0x7
	.quad	.LFB4065
	.uleb128 .LFE4065-.LFB4065
	.byte	0x7
	.quad	.LFB4064
	.uleb128 .LFE4064-.LFB4064
	.byte	0x7
	.quad	.LFB4066
	.uleb128 .LFE4066-.LFB4066
	.byte	0x7
	.quad	.LFB4091
	.uleb128 .LFE4091-.LFB4091
	.byte	0x7
	.quad	.LFB4092
	.uleb128 .LFE4092-.LFB4092
	.byte	0x7
	.quad	.LFB4093
	.uleb128 .LFE4093-.LFB4093
	.byte	0x7
	.quad	.LFB4094
	.uleb128 .LFE4094-.LFB4094
	.byte	0x7
	.quad	.LFB4107
	.uleb128 .LFE4107-.LFB4107
	.byte	0x7
	.quad	.LFB4108
	.uleb128 .LFE4108-.LFB4108
	.byte	0x7
	.quad	.LFB4111
	.uleb128 .LFE4111-.LFB4111
	.byte	0x7
	.quad	.LFB4112
	.uleb128 .LFE4112-.LFB4112
	.byte	0
.Ldebug_ranges3:
	.section	.debug_line,"",@progbits
.Ldebug_line0:
	.section	.debug_str,"MS",@progbits,1
.LASF406:
	.string	"insert"
.LASF184:
	.string	"_ZNSt6chrono8durationIlSt5ratioILl1ELl1000000000EEEmmEv"
.LASF764:
	.string	"fgetc"
.LASF653:
	.string	"int8_t"
.LASF400:
	.string	"_ZNKSt6vectorIiSaIiEE4dataEv"
.LASF337:
	.string	"_ZNSt6vectorIiSaIiEEC4EOS1_RKS0_"
.LASF13:
	.string	"size_t"
.LASF221:
	.string	"_ZNSt6chrono10time_pointINS_3_V212system_clockENS_8durationIlSt5ratioILl1ELl1000000000EEEEE3maxEv"
.LASF222:
	.string	"_Clock"
.LASF766:
	.string	"fgets"
.LASF545:
	.string	"tm_hour"
.LASF861:
	.string	"start"
.LASF284:
	.string	"_Vector_impl"
.LASF296:
	.string	"_Vector_base"
.LASF408:
	.string	"_ZNSt6vectorIiSaIiEE6insertEN9__gnu_cxx17__normal_iteratorIPKiS1_EEOi"
.LASF517:
	.string	"mbrlen"
.LASF241:
	.string	"_ZNSt6chrono13duration_castINS_8durationIlSt5ratioILl1ELl1000000000EEEElS3_EENSt9enable_ifIXsrNS_13__is_durationIT_EE5valueES7_E4typeERKNS1_IT0_T1_EE"
.LASF248:
	.string	"chrono_literals"
.LASF258:
	.string	"_ZNSaIiED4Ev"
.LASF442:
	.string	"_ZNSt6vectorIiSaIiEE8_M_eraseEN9__gnu_cxx17__normal_iteratorIPiS1_EE"
.LASF191:
	.string	"_ZNSt6chrono8durationIlSt5ratioILl1ELl1000000000EEEmLERKl"
.LASF682:
	.string	"decimal_point"
.LASF239:
	.string	"__enable_if_is_duration"
.LASF206:
	.string	"time_point"
.LASF299:
	.string	"_ZNSt12_Vector_baseIiSaIiEEC4Em"
.LASF676:
	.string	"uint_fast64_t"
.LASF655:
	.string	"int32_t"
.LASF217:
	.string	"_ZNKSt6chrono10time_pointINS_3_V212system_clockENS_8durationIlSt5ratioILl1ELl1000000000EEEEE16time_since_epochEv"
.LASF486:
	.string	"_ZSt20uninitialized_fill_nIPimiET_S1_T0_RKT1_"
.LASF220:
	.string	"_ZNSt6chrono10time_pointINS_3_V212system_clockENS_8durationIlSt5ratioILl1ELl1000000000EEEEE3minEv"
.LASF378:
	.string	"_ZNKSt6vectorIiSaIiEE8capacityEv"
.LASF490:
	.string	"_ZSt24__uninitialized_fill_n_aIPimiiET_S1_T0_RKT1_RSaIT2_E"
.LASF34:
	.string	"_IO_save_end"
.LASF669:
	.string	"int_fast8_t"
.LASF543:
	.string	"tm_sec"
.LASF601:
	.string	"_ZN9__gnu_cxx14__alloc_traitsISaIiEiE10_S_on_swapERS1_S3_"
.LASF410:
	.string	"_ZNSt6vectorIiSaIiEE6insertEN9__gnu_cxx17__normal_iteratorIPKiS1_EEmRS4_"
.LASF600:
	.string	"_S_on_swap"
.LASF573:
	.string	"wscanf"
.LASF816:
	.string	"asctime"
.LASF745:
	.string	"lldiv"
.LASF253:
	.string	"_ZNSaIiEC4ERKS_"
.LASF864:
	.string	"fib1Result"
.LASF541:
	.string	"wcscspn"
.LASF166:
	.string	"_S_gcd"
.LASF137:
	.string	"_ZNSolsEi"
.LASF708:
	.string	"localeconv"
.LASF138:
	.string	"_ZNSolsEl"
.LASF72:
	.string	"_M_addref"
.LASF76:
	.string	"_M_get"
.LASF335:
	.string	"_ZNSt6vectorIiSaIiEEC4EOS1_RKS0_St17integral_constantIbLb1EE"
.LASF750:
	.string	"strtold"
.LASF449:
	.string	"_M_len"
.LASF709:
	.string	"time_t"
.LASF879:
	.string	"_ZNSt6chrono8durationIlSt5ratioILl1ELl1000000000EEEC1IlvEERKT_"
.LASF747:
	.string	"strtoll"
.LASF132:
	.string	"_ZNSt8ios_base4InitC4ERKS0_"
.LASF734:
	.string	"__destroy<int*>"
.LASF802:
	.string	"parallel_unsequenced_policy"
.LASF27:
	.string	"_IO_write_base"
.LASF782:
	.string	"tmpnam"
.LASF305:
	.string	"~_Vector_base"
.LASF717:
	.string	"div_t"
.LASF868:
	.string	"__lhs"
.LASF736:
	.string	"quick_exit"
.LASF142:
	.string	"__istream_type"
.LASF831:
	.string	"__last"
.LASF252:
	.string	"_ZNSaIiEC4Ev"
.LASF43:
	.string	"_lock"
.LASF724:
	.string	"at_quick_exit"
.LASF685:
	.string	"int_curr_symbol"
.LASF422:
	.string	"_ZNSt6vectorIiSaIiEE14_M_fill_assignEmRKi"
.LASF367:
	.string	"crend"
.LASF552:
	.string	"tm_gmtoff"
.LASF583:
	.string	"new_allocator"
.LASF189:
	.string	"_ZNSt6chrono8durationIlSt5ratioILl1ELl1000000000EEEmIERKS3_"
.LASF363:
	.string	"cend"
.LASF465:
	.string	"__throw_length_error"
.LASF813:
	.string	"difftime"
.LASF94:
	.string	"forward_iterator_tag"
.LASF704:
	.string	"int_p_sign_posn"
.LASF318:
	.string	"_ZNSt6vectorIiSaIiEE19_S_nothrow_relocateESt17integral_constantIbLb0EE"
.LASF171:
	.string	"~duration"
.LASF696:
	.string	"n_cs_precedes"
.LASF321:
	.string	"_ZNSt6vectorIiSaIiEE15_S_use_relocateEv"
.LASF722:
	.string	"__compar_fn_t"
.LASF472:
	.string	"__fill_n_a<int*, long unsigned int, int>"
.LASF849:
	.string	"_ZN9__gnu_cxx13new_allocatorIiED2Ev"
.LASF32:
	.string	"_IO_save_base"
.LASF518:
	.string	"mbrtowc"
.LASF834:
	.string	"_Args"
.LASF245:
	.string	"_ZNSt5ratioILl1ELl1EE3numE"
.LASF692:
	.string	"int_frac_digits"
.LASF727:
	.string	"atol"
.LASF566:
	.string	"wcsxfrm"
.LASF746:
	.string	"atoll"
.LASF285:
	.string	"_ZNSt12_Vector_baseIiSaIiEE12_Vector_implC4Ev"
.LASF854:
	.string	"__out"
.LASF154:
	.string	"__uninitialized_default_n_1<true>"
.LASF873:
	.string	"memo"
.LASF450:
	.string	"initializer_list"
.LASF765:
	.string	"fgetpos"
.LASF752:
	.string	"__pos"
.LASF36:
	.string	"_chain"
.LASF307:
	.string	"_M_impl"
.LASF539:
	.string	"wcscoll"
.LASF759:
	.string	"clearerr"
.LASF63:
	.string	"_ZNKSt17integral_constantIbLb1EEcvbEv"
.LASF778:
	.string	"rewind"
.LASF174:
	.string	"count"
.LASF451:
	.string	"_ZNSt16initializer_listIiEC4EPKim"
.LASF859:
	.string	"_ZNSaIiEC2Ev"
.LASF153:
	.string	"_TrivialValueType"
.LASF182:
	.string	"_ZNSt6chrono8durationIlSt5ratioILl1ELl1000000000EEEppEi"
.LASF418:
	.string	"_ZNSt6vectorIiSaIiEE18_M_fill_initializeEmRKi"
.LASF690:
	.string	"positive_sign"
.LASF163:
	.string	"_Den"
.LASF15:
	.string	"__wch"
.LASF109:
	.string	"_ZNSt11char_traitsIcE4moveEPcPKcm"
.LASF277:
	.string	"_M_finish"
.LASF631:
	.string	"__uint8_t"
.LASF181:
	.string	"_ZNSt6chrono8durationIlSt5ratioILl1ELl1000000000EEEppEv"
.LASF282:
	.string	"_ZNSt12_Vector_baseIiSaIiEE17_Vector_impl_data12_M_copy_dataERKS2_"
.LASF881:
	.string	"GNU C++17 11.4.0 -mtune=generic -march=x86-64 -g -O0 -fasynchronous-unwind-tables -fstack-protector-strong -fstack-clash-protection -fcf-protection"
.LASF697:
	.string	"n_sep_by_space"
.LASF455:
	.string	"type_info"
.LASF725:
	.string	"atof"
.LASF467:
	.string	"__fill_a1<int*, int>"
.LASF726:
	.string	"atoi"
.LASF149:
	.string	"__uninitialized_fill_n<true>"
.LASF303:
	.string	"_ZNSt12_Vector_baseIiSaIiEEC4EOS1_RKS0_"
.LASF196:
	.string	"_ZNSt6chrono8durationIlSt5ratioILl1ELl1000000000EEE3minEv"
.LASF577:
	.string	"wcsrchr"
.LASF687:
	.string	"mon_decimal_point"
.LASF586:
	.string	"~new_allocator"
.LASF594:
	.string	"_ZNK9__gnu_cxx13new_allocatorIiE8max_sizeEv"
.LASF445:
	.string	"_ZNSt6vectorIiSaIiEE14_M_move_assignEOS1_St17integral_constantIbLb1EE"
.LASF564:
	.string	"long int"
.LASF333:
	.string	"_ZNSt6vectorIiSaIiEEC4EOS1_"
.LASF83:
	.string	"_ZNSt15__exception_ptr13exception_ptraSERKS0_"
.LASF487:
	.string	"__uninitialized_default_n<int*, long unsigned int>"
.LASF402:
	.string	"_ZNSt6vectorIiSaIiEE9push_backERKi"
.LASF533:
	.string	"vwprintf"
.LASF144:
	.string	"_ZNSirsERi"
.LASF215:
	.string	"_ZNSt6chrono10time_pointINS_3_V212system_clockENS_8durationIlSt5ratioILl1ELl1000000000EEEEEC4ERKS6_"
.LASF164:
	.string	"chrono"
.LASF419:
	.string	"_M_default_initialize"
.LASF865:
	.string	"fib1Duration"
.LASF662:
	.string	"int_least16_t"
.LASF744:
	.string	"wctomb"
.LASF372:
	.string	"resize"
.LASF116:
	.string	"int_type"
.LASF478:
	.string	"fill_n<int*, long unsigned int, int>"
.LASF755:
	.string	"_IO_marker"
.LASF758:
	.string	"fpos_t"
.LASF416:
	.string	"_ZNSt6vectorIiSaIiEE5clearEv"
.LASF860:
	.string	"main"
.LASF702:
	.string	"int_n_cs_precedes"
.LASF129:
	.string	"~Init"
.LASF126:
	.string	"_ForwardIterator"
.LASF243:
	.string	"type"
.LASF110:
	.string	"copy"
.LASF737:
	.string	"rand"
.LASF330:
	.string	"_ZNSt6vectorIiSaIiEEC4EmRKS0_"
.LASF843:
	.string	"__diffmax"
.LASF103:
	.string	"length"
.LASF616:
	.string	"wcstold"
.LASF822:
	.string	"_ZNSt8ios_base4InitC1Ev"
.LASF894:
	.string	"execution"
.LASF101:
	.string	"_ZNSt11char_traitsIcE2ltERKcS2_"
.LASF878:
	.string	"__rep"
.LASF155:
	.string	"__uninit_default_n<int*, long unsigned int>"
.LASF311:
	.string	"_ZNSt12_Vector_baseIiSaIiEE13_M_deallocateEPim"
.LASF93:
	.string	"nullptr_t"
.LASF484:
	.string	"_ZSt11__addressofIiEPT_RS0_"
.LASF292:
	.string	"_ZNSt12_Vector_baseIiSaIiEE19_M_get_Tp_allocatorEv"
.LASF838:
	.string	"__can_fill"
.LASF156:
	.string	"_ZNSt27__uninitialized_default_n_1ILb1EE18__uninit_default_nIPimEET_S3_T0_"
.LASF291:
	.string	"_M_get_Tp_allocator"
.LASF263:
	.string	"allocator_type"
.LASF668:
	.string	"uint_least64_t"
.LASF331:
	.string	"_ZNSt6vectorIiSaIiEEC4EmRKiRKS0_"
.LASF168:
	.string	"_ZNSt6chrono8durationIlSt5ratioILl1ELl1000000000EEE6_S_gcdEll"
.LASF624:
	.string	"signed char"
.LASF496:
	.string	"_Destroy<int*, int>"
.LASF657:
	.string	"uint8_t"
.LASF176:
	.string	"operator+"
.LASF327:
	.string	"vector"
.LASF178:
	.string	"operator-"
.LASF308:
	.string	"_M_allocate"
.LASF54:
	.string	"_IO_FILE"
.LASF776:
	.string	"remove"
.LASF390:
	.string	"_ZNSt6vectorIiSaIiEE2atEm"
.LASF742:
	.string	"system"
.LASF135:
	.string	"basic_ostream<char, std::char_traits<char> >"
.LASF167:
	.string	"duration"
.LASF18:
	.string	"__value"
.LASF784:
	.string	"wctype_t"
.LASF82:
	.string	"operator="
.LASF525:
	.string	"__isoc99_swscanf"
.LASF507:
	.string	"fgetwc"
.LASF265:
	.string	"_ZNSt16allocator_traitsISaIiEE8allocateERS0_mPKv"
.LASF707:
	.string	"getwchar"
.LASF841:
	.string	"_ZNSt12_Vector_baseIiSaIiEE12_Vector_implC2ERKS0_"
.LASF425:
	.string	"_M_default_append"
.LASF641:
	.string	"__uint_least16_t"
.LASF375:
	.string	"shrink_to_fit"
.LASF568:
	.string	"wmemcmp"
.LASF99:
	.string	"char_type"
.LASF622:
	.string	"unsigned char"
.LASF208:
	.string	"to_time_t"
.LASF47:
	.string	"_freeres_list"
.LASF161:
	.string	"_ZNSt5ratioILl1ELl1000000000EE3denE"
.LASF760:
	.string	"fclose"
.LASF579:
	.string	"wmemchr"
.LASF627:
	.string	"char16_t"
.LASF320:
	.string	"_ZNSt6chrono8durationIlSt5ratioILl1ELl1000000000EEE4zeroEv"
.LASF228:
	.string	"_NumIsOne"
.LASF515:
	.string	"__isoc99_fwscanf"
.LASF720:
	.string	"7lldiv_t"
.LASF638:
	.string	"__int_least8_t"
.LASF738:
	.string	"srand"
.LASF431:
	.string	"_M_emplace_aux"
.LASF121:
	.string	"not_eof"
.LASF523:
	.string	"swprintf"
.LASF652:
	.string	"__syscall_slong_t"
.LASF576:
	.string	"wcspbrk"
.LASF91:
	.string	"rethrow_exception"
.LASF218:
	.string	"_ZNSt6chrono10time_pointINS_3_V212system_clockENS_8durationIlSt5ratioILl1ELl1000000000EEEEEpLERKS6_"
.LASF302:
	.string	"_ZNSt12_Vector_baseIiSaIiEEC4EOS0_"
.LASF863:
	.string	"fibDuration"
.LASF575:
	.string	"wcschr"
.LASF334:
	.string	"_ZNSt6vectorIiSaIiEEC4ERKS1_RKS0_"
.LASF435:
	.string	"_S_check_init_len"
.LASF436:
	.string	"_ZNSt6vectorIiSaIiEE17_S_check_init_lenEmRKS0_"
.LASF322:
	.string	"_S_do_relocate"
.LASF19:
	.string	"char"
.LASF437:
	.string	"_S_max_size"
.LASF606:
	.string	"_S_propagate_on_swap"
.LASF461:
	.string	"__throw_bad_alloc"
.LASF862:
	.string	"fibResult"
.LASF730:
	.string	"ldiv"
.LASF680:
	.string	"uintmax_t"
.LASF57:
	.string	"operator std::integral_constant<bool, false>::value_type"
.LASF21:
	.string	"mbstate_t"
.LASF675:
	.string	"uint_fast32_t"
.LASF485:
	.string	"uninitialized_fill_n<int*, long unsigned int, int>"
.LASF789:
	.string	"wctype"
.LASF667:
	.string	"uint_least32_t"
.LASF479:
	.string	"_ZSt6fill_nIPimiET_S1_T0_RKT1_"
.LASF869:
	.string	"__rhs"
.LASF377:
	.string	"capacity"
.LASF556:
	.string	"wcsncmp"
.LASF893:
	.string	"_IO_lock_t"
.LASF295:
	.string	"_ZNKSt12_Vector_baseIiSaIiEE13get_allocatorEv"
.LASF804:
	.string	"_ZN6__pstl9execution2v127parallel_unsequenced_policy14__allow_vectorEv"
.LASF705:
	.string	"int_n_sign_posn"
.LASF301:
	.string	"_ZNSt12_Vector_baseIiSaIiEEC4EOS1_"
.LASF699:
	.string	"n_sign_posn"
.LASF457:
	.string	"reverse_iterator<__gnu_cxx::__normal_iterator<int const*, std::vector<int, std::allocator<int> > > >"
.LASF528:
	.string	"vfwscanf"
.LASF570:
	.string	"wmemmove"
.LASF385:
	.string	"_ZNSt6vectorIiSaIiEEixEm"
.LASF639:
	.string	"__uint_least8_t"
.LASF388:
	.string	"_M_range_check"
.LASF613:
	.string	"other"
.LASF805:
	.string	"_ZN6__pstl9execution2v127parallel_unsequenced_policy16__allow_parallelEv"
.LASF274:
	.string	"_Vector_base<int, std::allocator<int> >"
.LASF715:
	.string	"5div_t"
.LASF773:
	.string	"getc"
.LASF339:
	.string	"~vector"
.LASF826:
	.string	"operator new"
.LASF261:
	.string	"allocate"
.LASF362:
	.string	"_ZNKSt6vectorIiSaIiEE6cbeginEv"
.LASF506:
	.string	"btowc"
.LASF140:
	.string	"basic_istream<char, std::char_traits<char> >"
.LASF24:
	.string	"_IO_read_ptr"
.LASF5:
	.string	"double"
.LASF441:
	.string	"_M_erase"
.LASF139:
	.string	"_ZNSolsEPFRSoS_E"
.LASF688:
	.string	"mon_thousands_sep"
.LASF430:
	.string	"_ZNSt6vectorIiSaIiEE14_M_insert_rvalEN9__gnu_cxx17__normal_iteratorIPKiS1_EEOi"
.LASF526:
	.string	"ungetwc"
.LASF9:
	.string	"fp_offset"
.LASF772:
	.string	"ftell"
.LASF267:
	.string	"deallocate"
.LASF133:
	.string	"_ZNSt8ios_base4InitaSERKS0_"
.LASF731:
	.string	"mblen"
.LASF432:
	.string	"_ZNSt6vectorIiSaIiEE14_M_emplace_auxEN9__gnu_cxx17__normal_iteratorIPKiS1_EEOi"
.LASF585:
	.string	"_ZN9__gnu_cxx13new_allocatorIiEC4ERKS1_"
.LASF40:
	.string	"_cur_column"
.LASF286:
	.string	"_ZNSt12_Vector_baseIiSaIiEE12_Vector_implC4ERKS0_"
.LASF214:
	.string	"_ZNSt6chrono10time_pointINS_3_V212system_clockENS_8durationIlSt5ratioILl1ELl1000000000EEEEEC4Ev"
.LASF611:
	.string	"_ZN9__gnu_cxx14__alloc_traitsISaIiEiE15_S_nothrow_moveEv"
.LASF117:
	.string	"to_int_type"
.LASF200:
	.string	"_Rep2"
.LASF412:
	.string	"_ZNSt6vectorIiSaIiEE5eraseEN9__gnu_cxx17__normal_iteratorIPKiS1_EE"
.LASF700:
	.string	"int_p_cs_precedes"
.LASF460:
	.string	"iterator_category"
.LASF260:
	.string	"pointer"
.LASF353:
	.string	"reverse_iterator"
.LASF679:
	.string	"intmax_t"
.LASF770:
	.string	"fseek"
.LASF148:
	.string	"cout"
.LASF35:
	.string	"_markers"
.LASF619:
	.string	"wcstoull"
.LASF368:
	.string	"_ZNKSt6vectorIiSaIiEE5crendEv"
.LASF279:
	.string	"_ZNSt12_Vector_baseIiSaIiEE17_Vector_impl_dataC4Ev"
.LASF205:
	.string	"is_steady"
.LASF102:
	.string	"compare"
.LASF499:
	.string	"_ZSt4endlIcSt11char_traitsIcEERSt13basic_ostreamIT_T0_ES6_"
.LASF364:
	.string	"_ZNKSt6vectorIiSaIiEE4cendEv"
.LASF424:
	.string	"_ZNSt6vectorIiSaIiEE14_M_fill_insertEN9__gnu_cxx17__normal_iteratorIPiS1_EEmRKi"
.LASF597:
	.string	"__alloc_traits<std::allocator<int>, int>"
.LASF751:
	.string	"_G_fpos_t"
.LASF645:
	.string	"__uint_least64_t"
.LASF732:
	.string	"mbstowcs"
.LASF444:
	.string	"_M_move_assign"
.LASF270:
	.string	"_ZNSt16allocator_traitsISaIiEE8max_sizeERKS0_"
.LASF123:
	.string	"_CharT"
.LASF530:
	.string	"vswprintf"
.LASF381:
	.string	"reserve"
.LASF61:
	.string	"integral_constant<bool, true>"
.LASF741:
	.string	"strtoul"
.LASF62:
	.string	"operator std::integral_constant<bool, true>::value_type"
.LASF201:
	.string	"_Rep"
.LASF462:
	.string	"__throw_bad_array_new_length"
.LASF571:
	.string	"wmemset"
.LASF81:
	.string	"_ZNSt15__exception_ptr13exception_ptrC4EOS0_"
.LASF615:
	.string	"__normal_iterator<int const*, std::vector<int, std::allocator<int> > >"
.LASF88:
	.string	"_ZNSt15__exception_ptr13exception_ptr4swapERS0_"
.LASF535:
	.string	"__isoc99_vwscanf"
.LASF170:
	.string	"_ZNSt6chrono8durationIlSt5ratioILl1ELl1000000000EEEC4ERKS3_"
.LASF175:
	.string	"_ZNKSt6chrono8durationIlSt5ratioILl1ELl1000000000EEE5countEv"
.LASF512:
	.string	"fwide"
.LASF271:
	.string	"select_on_container_copy_construction"
.LASF513:
	.string	"fwprintf"
.LASF316:
	.string	"_S_nothrow_relocate"
.LASF866:
	.string	"climbResult"
.LASF440:
	.string	"_ZNSt6vectorIiSaIiEE15_M_erase_at_endEPi"
.LASF427:
	.string	"_M_shrink_to_fit"
.LASF23:
	.string	"_flags"
.LASF646:
	.string	"__intmax_t"
.LASF341:
	.string	"_ZNSt6vectorIiSaIiEEaSERKS1_"
.LASF415:
	.string	"clear"
.LASF306:
	.string	"_ZNSt12_Vector_baseIiSaIiEED4Ev"
.LASF89:
	.string	"__cxa_exception_type"
.LASF551:
	.string	"tm_isdst"
.LASF469:
	.string	"__fill_a<int*, int>"
.LASF387:
	.string	"_ZNKSt6vectorIiSaIiEEixEm"
.LASF557:
	.string	"wcsncpy"
.LASF392:
	.string	"front"
.LASF887:
	.string	"_ZNSt6chrono3_V212system_clock9is_steadyE"
.LASF147:
	.string	"ostream"
.LASF522:
	.string	"putwchar"
.LASF328:
	.string	"_ZNSt6vectorIiSaIiEEC4Ev"
.LASF602:
	.string	"_S_propagate_on_copy_assign"
.LASF84:
	.string	"_ZNSt15__exception_ptr13exception_ptraSEOS0_"
.LASF136:
	.string	"operator<<"
.LASF141:
	.string	"__ostream_type"
.LASF111:
	.string	"_ZNSt11char_traitsIcE4copyEPcPKcm"
.LASF386:
	.string	"const_reference"
.LASF106:
	.string	"find"
.LASF799:
	.string	"_ZN6__pstl9execution2v115parallel_policy19__allow_unsequencedEv"
.LASF637:
	.string	"__uint64_t"
.LASF729:
	.string	"getenv"
.LASF829:
	.string	"__priority"
.LASF666:
	.string	"uint_least16_t"
.LASF691:
	.string	"negative_sign"
.LASF108:
	.string	"move"
.LASF452:
	.string	"_ZNSt16initializer_listIiEC4Ev"
.LASF7:
	.string	"long unsigned int"
.LASF498:
	.string	"endl<char, std::char_traits<char> >"
.LASF721:
	.string	"lldiv_t"
.LASF78:
	.string	"_ZNSt15__exception_ptr13exception_ptrC4Ev"
.LASF268:
	.string	"_ZNSt16allocator_traitsISaIiEE10deallocateERS0_Pim"
.LASF379:
	.string	"empty"
.LASF383:
	.string	"reference"
.LASF505:
	.string	"_ZSt17__size_to_integerm"
.LASF73:
	.string	"_M_release"
.LASF275:
	.string	"_Vector_impl_data"
.LASF179:
	.string	"_ZNKSt6chrono8durationIlSt5ratioILl1ELl1000000000EEEngEv"
.LASF356:
	.string	"const_reverse_iterator"
.LASF38:
	.string	"_flags2"
.LASF289:
	.string	"_ZNSt12_Vector_baseIiSaIiEE12_Vector_implC4EOS0_OS2_"
.LASF373:
	.string	"_ZNSt6vectorIiSaIiEE6resizeEm"
.LASF629:
	.string	"__gnu_debug"
.LASF643:
	.string	"__uint_least32_t"
.LASF836:
	.string	"__al"
.LASF718:
	.string	"6ldiv_t"
.LASF26:
	.string	"_IO_read_base"
.LASF458:
	.string	"enable_if<true, std::chrono::duration<long int, std::ratio<1, 1000000000> > >"
.LASF384:
	.string	"operator[]"
.LASF96:
	.string	"random_access_iterator_tag"
.LASF762:
	.string	"ferror"
.LASF527:
	.string	"vfwprintf"
.LASF401:
	.string	"push_back"
.LASF823:
	.string	"this"
.LASF827:
	.string	"_Znwm"
.LASF628:
	.string	"char32_t"
.LASF51:
	.string	"_unused2"
.LASF710:
	.string	"timespec"
.LASF269:
	.string	"max_size"
.LASF609:
	.string	"_ZN9__gnu_cxx14__alloc_traitsISaIiEiE15_S_always_equalEv"
.LASF394:
	.string	"_ZNKSt6vectorIiSaIiEE5frontEv"
.LASF56:
	.string	"value_type"
.LASF678:
	.string	"uintptr_t"
.LASF695:
	.string	"p_sep_by_space"
.LASF119:
	.string	"eq_int_type"
.LASF77:
	.string	"_ZNKSt15__exception_ptr13exception_ptr6_M_getEv"
.LASF812:
	.string	"clock"
.LASF357:
	.string	"_ZNKSt6vectorIiSaIiEE6rbeginEv"
.LASF350:
	.string	"_ZNKSt6vectorIiSaIiEE5beginEv"
.LASF187:
	.string	"_ZNSt6chrono8durationIlSt5ratioILl1ELl1000000000EEEpLERKS3_"
.LASF143:
	.string	"operator>>"
.LASF315:
	.string	"vector<int, std::allocator<int> >"
.LASF39:
	.string	"_old_offset"
.LASF798:
	.string	"parallel_policy"
.LASF345:
	.string	"_ZNSt6vectorIiSaIiEE6assignESt16initializer_listIiE"
.LASF128:
	.string	"Init"
.LASF771:
	.string	"fsetpos"
.LASF159:
	.string	"ratio<1, 1000000000>"
.LASF477:
	.string	"_Iter"
.LASF703:
	.string	"int_n_sep_by_space"
.LASF593:
	.string	"_ZN9__gnu_cxx13new_allocatorIiE10deallocateEPim"
.LASF160:
	.string	"_ZNSt5ratioILl1ELl1000000000EE3numE"
.LASF59:
	.string	"_ZNKSt17integral_constantIbLb0EEcvbEv"
.LASF808:
	.string	"_ZN6__pstl9execution2v118unsequenced_policy14__allow_vectorEv"
.LASF235:
	.string	"operator-<std::chrono::_V2::system_clock, std::chrono::duration<long int, std::ratio<1, 1000000000> >, std::chrono::duration<long int, std::ratio<1, 1000000000> > >"
.LASF366:
	.string	"_ZNKSt6vectorIiSaIiEE7crbeginEv"
.LASF828:
	.string	"__initialize_p"
.LASF870:
	.string	"__cd"
.LASF376:
	.string	"_ZNSt6vectorIiSaIiEE13shrink_to_fitEv"
.LASF213:
	.string	"time_point<std::chrono::_V2::system_clock, std::chrono::duration<long int, std::ratio<1, 1000000000> > >"
.LASF10:
	.string	"overflow_arg_area"
.LASF298:
	.string	"_ZNSt12_Vector_baseIiSaIiEEC4ERKS0_"
.LASF635:
	.string	"__uint32_t"
.LASF867:
	.string	"climbDuration"
.LASF591:
	.string	"_ZNK9__gnu_cxx13new_allocatorIiE7addressERKi"
.LASF806:
	.string	"unsequenced_policy"
.LASF587:
	.string	"_ZN9__gnu_cxx13new_allocatorIiED4Ev"
.LASF618:
	.string	"long long int"
.LASF290:
	.string	"_Tp_alloc_type"
.LASF538:
	.string	"wcscmp"
.LASF20:
	.string	"__mbstate_t"
.LASF417:
	.string	"_M_fill_initialize"
.LASF795:
	.string	"_ZN6__pstl9execution2v116sequenced_policy14__allow_vectorEv"
.LASF281:
	.string	"_M_copy_data"
.LASF414:
	.string	"_ZNSt6vectorIiSaIiEE4swapERS1_"
.LASF391:
	.string	"_ZNKSt6vectorIiSaIiEE2atEm"
.LASF547:
	.string	"tm_mon"
.LASF783:
	.string	"ungetc"
.LASF464:
	.string	"_ZSt28__throw_bad_array_new_lengthv"
.LASF71:
	.string	"_ZNSt15__exception_ptr13exception_ptrC4EPv"
.LASF231:
	.string	"_ZNSt6chronomiIlSt5ratioILl1ELl1000000000EElS2_EENSt11common_typeIJNS_8durationIT_T0_EENS4_IT1_T2_EEEE4typeERKS7_RKSA_"
.LASF338:
	.string	"_ZNSt6vectorIiSaIiEEC4ESt16initializer_listIiERKS0_"
.LASF256:
	.string	"_ZNSaIiEaSERKS_"
.LASF663:
	.string	"int_least32_t"
.LASF107:
	.string	"_ZNSt11char_traitsIcE4findEPKcmRS1_"
.LASF733:
	.string	"mbtowc"
.LASF224:
	.string	"__duration_cast_impl<std::chrono::duration<long int, std::ratio<1, 1000000000> >, std::ratio<1, 1>, long int, true, true>"
.LASF344:
	.string	"_ZNSt6vectorIiSaIiEE6assignEmRKi"
.LASF29:
	.string	"_IO_write_end"
.LASF165:
	.string	"duration<long int, std::ratio<1, 1000000000> >"
.LASF151:
	.string	"_ZNSt22__uninitialized_fill_nILb1EE15__uninit_fill_nIPimiEET_S3_T0_RKT1_"
.LASF131:
	.string	"_ZNSt8ios_base4InitD4Ev"
.LASF882:
	.string	"align_val_t"
.LASF895:
	.string	"_GLOBAL__sub_I__Z9fibonaccii"
.LASF567:
	.string	"wctob"
.LASF8:
	.string	"gp_offset"
.LASF413:
	.string	"_ZNSt6vectorIiSaIiEE5eraseEN9__gnu_cxx17__normal_iteratorIPKiS1_EES6_"
.LASF684:
	.string	"grouping"
.LASF596:
	.string	"_ZNK9__gnu_cxx13new_allocatorIiE11_M_max_sizeEv"
.LASF313:
	.string	"_ZNSt12_Vector_baseIiSaIiEE17_M_create_storageEm"
.LASF482:
	.string	"_ZSt10_ConstructIiJEEvPT_DpOT0_"
.LASF4:
	.string	"float"
.LASF237:
	.string	"_Dur1"
.LASF238:
	.string	"_Dur2"
.LASF272:
	.string	"_ZNSt16allocator_traitsISaIiEE37select_on_container_copy_constructionERKS0_"
.LASF569:
	.string	"wmemcpy"
.LASF250:
	.string	"allocator<int>"
.LASF698:
	.string	"p_sign_posn"
.LASF145:
	.string	"_Traits"
.LASF851:
	.string	"__to_rep"
.LASF429:
	.string	"_M_insert_rval"
.LASF886:
	.string	"_ZSt4cout"
.LASF544:
	.string	"tm_min"
.LASF463:
	.string	"_ZSt17__throw_bad_allocv"
.LASF276:
	.string	"_M_start"
.LASF30:
	.string	"_IO_buf_base"
.LASF793:
	.string	"__allow_vector"
.LASF312:
	.string	"_M_create_storage"
.LASF12:
	.string	"unsigned int"
.LASF65:
	.string	"false_type"
.LASF884:
	.string	"_ZNSt12_Destroy_auxILb1EE9__destroyIPiEEvT_S3_"
.LASF359:
	.string	"_ZNSt6vectorIiSaIiEE4rendEv"
.LASF326:
	.string	"_ZNSt6vectorIiSaIiEE11_S_relocateEPiS2_S2_RS0_"
.LASF524:
	.string	"swscanf"
.LASF98:
	.string	"char_traits<char>"
.LASF775:
	.string	"perror"
.LASF848:
	.string	"_ZNSt12_Vector_baseIiSaIiEE12_Vector_implD2Ev"
.LASF473:
	.string	"_ZSt10__fill_n_aIPimiET_S1_T0_RKT1_St26random_access_iterator_tag"
.LASF677:
	.string	"intptr_t"
.LASF735:
	.string	"qsort"
.LASF559:
	.string	"wcsspn"
.LASF360:
	.string	"_ZNKSt6vectorIiSaIiEE4rendEv"
.LASF254:
	.string	"operator bool"
.LASF120:
	.string	"_ZNSt11char_traitsIcE11eq_int_typeERKiS2_"
.LASF283:
	.string	"_M_swap_data"
.LASF480:
	.string	"_Construct<int>"
.LASF365:
	.string	"crbegin"
.LASF743:
	.string	"wcstombs"
.LASF355:
	.string	"_ZNSt6vectorIiSaIiEE6rbeginEv"
.LASF446:
	.string	"_ZNSt6vectorIiSaIiEE14_M_move_assignEOS1_St17integral_constantIbLb0EE"
.LASF780:
	.string	"setvbuf"
.LASF202:
	.string	"_Period"
.LASF3:
	.string	"__float128"
.LASF113:
	.string	"_ZNSt11char_traitsIcE6assignEPcmc"
.LASF797:
	.string	"_ZN6__pstl9execution2v116sequenced_policy16__allow_parallelEv"
.LASF814:
	.string	"mktime"
.LASF115:
	.string	"_ZNSt11char_traitsIcE12to_char_typeERKi"
.LASF756:
	.string	"_IO_codecvt"
.LASF454:
	.string	"_ZNKSt16initializer_listIiE5beginEv"
.LASF317:
	.string	"_ZNSt6vectorIiSaIiEE19_S_nothrow_relocateESt17integral_constantIbLb1EE"
.LASF216:
	.string	"time_since_epoch"
.LASF670:
	.string	"int_fast16_t"
.LASF380:
	.string	"_ZNKSt6vectorIiSaIiEE5emptyEv"
.LASF785:
	.string	"wctrans_t"
.LASF194:
	.string	"zero"
.LASF185:
	.string	"_ZNSt6chrono8durationIlSt5ratioILl1ELl1000000000EEEmmEi"
.LASF777:
	.string	"rename"
.LASF354:
	.string	"rbegin"
.LASF210:
	.string	"from_time_t"
.LASF837:
	.string	"__val"
.LASF877:
	.string	"_Z9fibonaccii"
.LASF229:
	.string	"_DenIsOne"
.LASF588:
	.string	"address"
.LASF612:
	.string	"rebind<int>"
.LASF369:
	.string	"size"
.LASF832:
	.string	"__ioinit"
.LASF273:
	.string	"rebind_alloc"
.LASF650:
	.string	"__clock_t"
.LASF850:
	.string	"_ZN9__gnu_cxx13new_allocatorIiEC2Ev"
.LASF319:
	.string	"_S_use_relocate"
.LASF494:
	.string	"__uninitialized_default_n_a<int*, long unsigned int, int>"
.LASF50:
	.string	"_mode"
.LASF382:
	.string	"_ZNSt6vectorIiSaIiEE7reserveEm"
.LASF85:
	.string	"~exception_ptr"
.LASF817:
	.string	"ctime"
.LASF508:
	.string	"fgetws"
.LASF610:
	.string	"_S_nothrow_move"
.LASF342:
	.string	"_ZNSt6vectorIiSaIiEEaSEOS1_"
.LASF475:
	.string	"__iterator_category<int*>"
.LASF774:
	.string	"getchar"
.LASF45:
	.string	"_codecvt"
.LASF874:
	.string	"helper"
.LASF858:
	.string	"_ZNSaIiED2Ev"
.LASF17:
	.string	"__count"
.LASF876:
	.string	"fibonacci"
.LASF580:
	.string	"__gnu_cxx"
.LASF226:
	.string	"_ZNSt6chrono20__duration_cast_implINS_8durationIlSt5ratioILl1ELl1000000000EEEES2_ILl1ELl1EElLb1ELb1EE6__castIlS3_EES4_RKNS1_IT_T0_EE"
.LASF68:
	.string	"__exception_ptr"
.LASF262:
	.string	"_ZNSt16allocator_traitsISaIiEE8allocateERS0_m"
.LASF60:
	.string	"_ZNKSt17integral_constantIbLb0EEclEv"
.LASF621:
	.string	"bool"
.LASF665:
	.string	"uint_least8_t"
.LASF761:
	.string	"feof"
.LASF434:
	.string	"_ZNKSt6vectorIiSaIiEE12_M_check_lenEmPKc"
.LASF661:
	.string	"int_least8_t"
.LASF2:
	.string	"__unknown__"
.LASF872:
	.string	"_Z11climbStairsi"
.LASF433:
	.string	"_M_check_len"
.LASF880:
	.string	"_ZnwmPv"
.LASF293:
	.string	"_ZNKSt12_Vector_baseIiSaIiEE19_M_get_Tp_allocatorEv"
.LASF748:
	.string	"strtoull"
.LASF404:
	.string	"pop_back"
.LASF842:
	.string	"_ZNSaIiEC2ERKS_"
.LASF792:
	.string	"__allow_unsequenced"
.LASF236:
	.string	"_ZNSt6chronomiINS_3_V212system_clockENS_8durationIlSt5ratioILl1ELl1000000000EEEES6_EENSt11common_typeIJT0_T1_EE4typeERKNS_10time_pointIT_S8_EERKNSC_ISD_S9_EE"
.LASF574:
	.string	"__isoc99_wscanf"
.LASF209:
	.string	"_ZNSt6chrono3_V212system_clock9to_time_tERKNS_10time_pointIS1_NS_8durationIlSt5ratioILl1ELl1000000000EEEEEE"
.LASF249:
	.string	"filesystem"
.LASF41:
	.string	"_vtable_offset"
.LASF6:
	.string	"long double"
.LASF223:
	.string	"_Dur"
.LASF127:
	.string	"__cxx11"
.LASF521:
	.string	"putwc"
.LASF230:
	.string	"operator-<long int, std::ratio<1, 1000000000>, long int, std::ratio<1, 1000000000> >"
.LASF399:
	.string	"_ZNSt6vectorIiSaIiEE4dataEv"
.LASF52:
	.string	"FILE"
.LASF162:
	.string	"_Num"
.LASF347:
	.string	"begin"
.LASF671:
	.string	"int_fast32_t"
.LASF719:
	.string	"ldiv_t"
.LASF803:
	.string	"_ZN6__pstl9execution2v127parallel_unsequenced_policy19__allow_unsequencedEv"
.LASF497:
	.string	"_ZSt8_DestroyIPiiEvT_S1_RSaIT0_E"
.LASF546:
	.string	"tm_mday"
.LASF212:
	.string	"_ZNSt6chrono3_V212system_clock11from_time_tEl"
.LASF16:
	.string	"__wchb"
.LASF871:
	.string	"climbStairs"
.LASF595:
	.string	"_M_max_size"
.LASF781:
	.string	"tmpfile"
.LASF495:
	.string	"_ZSt27__uninitialized_default_n_aIPimiET_S1_T0_RSaIT1_E"
.LASF728:
	.string	"bsearch"
.LASF491:
	.string	"_Tp2"
.LASF64:
	.string	"_ZNKSt17integral_constantIbLb1EEclEv"
.LASF630:
	.string	"__int8_t"
.LASF800:
	.string	"_ZN6__pstl9execution2v115parallel_policy14__allow_vectorEv"
.LASF821:
	.string	"_ZNSt8ios_base4InitD1Ev"
.LASF830:
	.string	"__first"
.LASF896:
	.string	"__static_initialization_and_destruction_0"
.LASF502:
	.string	"min<long unsigned int>"
.LASF104:
	.string	"_ZNSt11char_traitsIcE7compareEPKcS2_m"
.LASF620:
	.string	"long long unsigned int"
.LASF713:
	.string	"clock_t"
.LASF389:
	.string	"_ZNKSt6vectorIiSaIiEE14_M_range_checkEm"
.LASF87:
	.string	"swap"
.LASF11:
	.string	"reg_save_area"
.LASF371:
	.string	"_ZNKSt6vectorIiSaIiEE8max_sizeEv"
.LASF701:
	.string	"int_p_sep_by_space"
.LASF124:
	.string	"true_type"
.LASF439:
	.string	"_M_erase_at_end"
.LASF658:
	.string	"uint16_t"
.LASF617:
	.string	"wcstoll"
.LASF648:
	.string	"__off_t"
.LASF351:
	.string	"_ZNSt6vectorIiSaIiEE3endEv"
.LASF578:
	.string	"wcsstr"
.LASF118:
	.string	"_ZNSt11char_traitsIcE11to_int_typeERKc"
.LASF540:
	.string	"wcscpy"
.LASF80:
	.string	"_ZNSt15__exception_ptr13exception_ptrC4EDn"
.LASF92:
	.string	"_ZSt17rethrow_exceptionNSt15__exception_ptr13exception_ptrE"
.LASF605:
	.string	"_ZN9__gnu_cxx14__alloc_traitsISaIiEiE27_S_propagate_on_move_assignEv"
.LASF779:
	.string	"setbuf"
.LASF532:
	.string	"__isoc99_vswscanf"
.LASF443:
	.string	"_ZNSt6vectorIiSaIiEE8_M_eraseEN9__gnu_cxx17__normal_iteratorIPiS1_EES5_"
.LASF582:
	.string	"new_allocator<int>"
.LASF558:
	.string	"wcsrtombs"
.LASF640:
	.string	"__int_least16_t"
.LASF672:
	.string	"int_fast64_t"
.LASF604:
	.string	"_S_propagate_on_move_assign"
.LASF48:
	.string	"_freeres_buf"
.LASF549:
	.string	"tm_wday"
.LASF423:
	.string	"_M_fill_insert"
.LASF225:
	.string	"__cast<long int, std::ratio<1, 1000000000> >"
.LASF374:
	.string	"_ZNSt6vectorIiSaIiEE6resizeEmRKi"
.LASF100:
	.string	"_ZNSt11char_traitsIcE2eqERKcS2_"
.LASF325:
	.string	"_S_relocate"
.LASF483:
	.string	"__addressof<int>"
.LASF466:
	.string	"_ZSt20__throw_length_errorPKc"
.LASF503:
	.string	"_ZSt3minImERKT_S2_S2_"
.LASF519:
	.string	"mbsinit"
.LASF550:
	.string	"tm_yday"
.LASF58:
	.string	"operator()"
.LASF633:
	.string	"__uint16_t"
.LASF560:
	.string	"wcstod"
.LASF561:
	.string	"wcstof"
.LASF55:
	.string	"integral_constant<bool, false>"
.LASF562:
	.string	"wcstok"
.LASF563:
	.string	"wcstol"
.LASF824:
	.string	"operator delete"
.LASF428:
	.string	"_ZNSt6vectorIiSaIiEE16_M_shrink_to_fitEv"
.LASF883:
	.string	"input_iterator_tag"
.LASF278:
	.string	"_M_end_of_storage"
.LASF847:
	.string	"_ZNSt12_Vector_baseIiSaIiEEC2EmRKS0_"
.LASF716:
	.string	"quot"
.LASF22:
	.string	"__FILE"
.LASF361:
	.string	"cbegin"
.LASF632:
	.string	"__int16_t"
.LASF33:
	.string	"_IO_backup_base"
.LASF706:
	.string	"setlocale"
.LASF42:
	.string	"_shortbuf"
.LASF598:
	.string	"_S_select_on_copy"
.LASF438:
	.string	"_ZNSt6vectorIiSaIiEE11_S_max_sizeERKS0_"
.LASF801:
	.string	"_ZN6__pstl9execution2v115parallel_policy16__allow_parallelEv"
.LASF856:
	.string	"_ZNSt6vectorIiSaIiEED2Ev"
.LASF501:
	.string	"_ZStlsISt11char_traitsIcEERSt13basic_ostreamIcT_ES5_PKc"
.LASF514:
	.string	"fwscanf"
.LASF14:
	.string	"wint_t"
.LASF790:
	.string	"__pstl"
.LASF219:
	.string	"_ZNSt6chrono10time_pointINS_3_V212system_clockENS_8durationIlSt5ratioILl1ELl1000000000EEEEEmIERKS6_"
.LASF257:
	.string	"~allocator"
.LASF150:
	.string	"__uninit_fill_n<int*, long unsigned int, int>"
.LASF626:
	.string	"__int128"
.LASF820:
	.string	"timespec_get"
.LASF819:
	.string	"localtime"
.LASF134:
	.string	"ios_base"
.LASF649:
	.string	"__off64_t"
.LASF395:
	.string	"back"
.LASF329:
	.string	"_ZNSt6vectorIiSaIiEEC4ERKS0_"
.LASF199:
	.string	"_ZNSt6chrono8durationIlSt5ratioILl1ELl1000000000EEEC4IlvEERKT_"
.LASF448:
	.string	"_M_array"
.LASF767:
	.string	"fopen"
.LASF69:
	.string	"_M_exception_object"
.LASF471:
	.string	"_FIte"
.LASF393:
	.string	"_ZNSt6vectorIiSaIiEE5frontEv"
.LASF565:
	.string	"wcstoul"
.LASF251:
	.string	"allocator"
.LASF476:
	.string	"_ZSt19__iterator_categoryIPiENSt15iterator_traitsIT_E17iterator_categoryERKS2_"
.LASF788:
	.string	"wctrans"
.LASF603:
	.string	"_ZN9__gnu_cxx14__alloc_traitsISaIiEiE27_S_propagate_on_copy_assignEv"
.LASF683:
	.string	"thousands_sep"
.LASF407:
	.string	"_ZNSt6vectorIiSaIiEE6insertEN9__gnu_cxx17__normal_iteratorIPKiS1_EERS4_"
.LASF348:
	.string	"_ZNSt6vectorIiSaIiEE5beginEv"
.LASF529:
	.string	"__isoc99_vfwscanf"
.LASF396:
	.string	"_ZNSt6vectorIiSaIiEE4backEv"
.LASF66:
	.string	"__swappable_details"
.LASF892:
	.string	"decltype(nullptr)"
.LASF493:
	.string	"_ZSt8_DestroyIPiEvT_S1_"
.LASF31:
	.string	"_IO_buf_end"
.LASF95:
	.string	"bidirectional_iterator_tag"
.LASF825:
	.string	"_ZdlPvm"
.LASF554:
	.string	"wcslen"
.LASF846:
	.string	"_ZNSt12_Vector_baseIiSaIiEED2Ev"
.LASF492:
	.string	"_Destroy<int*>"
.LASF332:
	.string	"_ZNSt6vectorIiSaIiEEC4ERKS1_"
.LASF172:
	.string	"_ZNSt6chrono8durationIlSt5ratioILl1ELl1000000000EEED4Ev"
.LASF739:
	.string	"strtod"
.LASF190:
	.string	"operator*="
.LASF749:
	.string	"strtof"
.LASF673:
	.string	"uint_fast8_t"
.LASF314:
	.string	"_Alloc"
.LASF114:
	.string	"to_char_type"
.LASF740:
	.string	"strtol"
.LASF97:
	.string	"__debug"
.LASF693:
	.string	"frac_digits"
.LASF244:
	.string	"ratio<1, 1>"
.LASF421:
	.string	"_M_fill_assign"
.LASF309:
	.string	"_ZNSt12_Vector_baseIiSaIiEE11_M_allocateEm"
.LASF807:
	.string	"_ZN6__pstl9execution2v118unsequenced_policy19__allow_unsequencedEv"
.LASF840:
	.string	"_ZN9__gnu_cxx13new_allocatorIiEC2ERKS1_"
.LASF625:
	.string	"short int"
.LASF125:
	.string	"_Destroy_aux<true>"
.LASF470:
	.string	"_ZSt8__fill_aIPiiEvT_S1_RKT0_"
.LASF500:
	.string	"operator<< <std::char_traits<char> >"
.LASF489:
	.string	"__uninitialized_fill_n_a<int*, long unsigned int, int, int>"
.LASF660:
	.string	"uint64_t"
.LASF542:
	.string	"wcsftime"
.LASF349:
	.string	"const_iterator"
.LASF753:
	.string	"__state"
.LASF712:
	.string	"tv_nsec"
.LASF180:
	.string	"operator++"
.LASF654:
	.string	"int16_t"
.LASF723:
	.string	"atexit"
.LASF323:
	.string	"_ZNSt6vectorIiSaIiEE14_S_do_relocateEPiS2_S2_RS0_St17integral_constantIbLb1EE"
.LASF255:
	.string	"_ZNKSt15__exception_ptr13exception_ptrcvbEv"
.LASF644:
	.string	"__int_least64_t"
.LASF186:
	.string	"operator+="
.LASF198:
	.string	"duration<long int>"
.LASF689:
	.string	"mon_grouping"
.LASF242:
	.string	"common_type<std::chrono::duration<long int, std::ratio<1, 1000000000> >, std::chrono::duration<long int, std::ratio<1, 1000000000> > >"
.LASF608:
	.string	"_S_always_equal"
.LASF787:
	.string	"towctrans"
.LASF647:
	.string	"__uintmax_t"
.LASF211:
	.string	"_ZNSt11char_traitsIcE6assignERcRKc"
.LASF833:
	.string	"__tmp"
.LASF346:
	.string	"iterator"
.LASF885:
	.string	"_ZSt3cin"
.LASF810:
	.string	"par_unseq"
.LASF177:
	.string	"_ZNKSt6chrono8durationIlSt5ratioILl1ELl1000000000EEEpsEv"
.LASF246:
	.string	"_ZNSt5ratioILl1ELl1EE3denE"
.LASF537:
	.string	"wcscat"
.LASF336:
	.string	"_ZNSt6vectorIiSaIiEEC4EOS1_RKS0_St17integral_constantIbLb0EE"
.LASF607:
	.string	"_ZN9__gnu_cxx14__alloc_traitsISaIiEiE20_S_propagate_on_swapEv"
.LASF504:
	.string	"__size_to_integer"
.LASF714:
	.string	"11__mbstate_t"
.LASF403:
	.string	"_ZNSt6vectorIiSaIiEE9push_backEOi"
.LASF405:
	.string	"_ZNSt6vectorIiSaIiEE8pop_backEv"
.LASF589:
	.string	"_ZNK9__gnu_cxx13new_allocatorIiE7addressERi"
.LASF426:
	.string	"_ZNSt6vectorIiSaIiEE17_M_default_appendEm"
.LASF233:
	.string	"_Period1"
.LASF234:
	.string	"_Period2"
.LASF447:
	.string	"initializer_list<int>"
.LASF67:
	.string	"__swappable_with_details"
.LASF875:
	.string	"_Z6helperRSt6vectorIiSaIiEEi"
.LASF553:
	.string	"tm_zone"
.LASF370:
	.string	"_ZNKSt6vectorIiSaIiEE4sizeEv"
.LASF636:
	.string	"__int64_t"
.LASF811:
	.string	"unseq"
.LASF297:
	.string	"_ZNSt12_Vector_baseIiSaIiEEC4Ev"
.LASF420:
	.string	"_ZNSt6vectorIiSaIiEE21_M_default_initializeEm"
.LASF599:
	.string	"_ZN9__gnu_cxx14__alloc_traitsISaIiEiE17_S_select_on_copyERKS1_"
.LASF757:
	.string	"_IO_wide_data"
.LASF411:
	.string	"erase"
.LASF534:
	.string	"vwscanf"
.LASF397:
	.string	"_ZNKSt6vectorIiSaIiEE4backEv"
.LASF536:
	.string	"wcrtomb"
.LASF681:
	.string	"lconv"
.LASF25:
	.string	"_IO_read_end"
.LASF195:
	.string	"_ZNSt11char_traitsIcE3eofEv"
.LASF555:
	.string	"wcsncat"
.LASF853:
	.string	"__os"
.LASF488:
	.string	"_ZSt25__uninitialized_default_nIPimET_S1_T0_"
.LASF259:
	.string	"allocator_traits<std::allocator<int> >"
.LASF456:
	.string	"reverse_iterator<__gnu_cxx::__normal_iterator<int*, std::vector<int, std::allocator<int> > > >"
.LASF207:
	.string	"_ZNSt6chrono3_V212system_clock3nowEv"
.LASF79:
	.string	"_ZNSt15__exception_ptr13exception_ptrC4ERKS0_"
.LASF459:
	.string	"iterator_traits<int*>"
.LASF183:
	.string	"operator--"
.LASF835:
	.string	"__dso_handle"
.LASF340:
	.string	"_ZNSt6vectorIiSaIiEED4Ev"
.LASF857:
	.string	"_ZNSt6vectorIiSaIiEEC2EmRKS0_"
.LASF510:
	.string	"fputwc"
.LASF188:
	.string	"operator-="
.LASF754:
	.string	"__fpos_t"
.LASF468:
	.string	"_ZSt9__fill_a1IPiiEN9__gnu_cxx11__enable_ifIXsrSt11__is_scalarIT0_E7__valueEvE6__typeET_S8_RKS4_"
.LASF37:
	.string	"_fileno"
.LASF686:
	.string	"currency_symbol"
.LASF105:
	.string	"_ZNSt11char_traitsIcE6lengthEPKc"
.LASF674:
	.string	"uint_fast16_t"
.LASF511:
	.string	"fputws"
.LASF531:
	.string	"vswscanf"
.LASF520:
	.string	"mbsrtowcs"
.LASF46:
	.string	"_wide_data"
.LASF75:
	.string	"_ZNSt15__exception_ptr13exception_ptr10_M_releaseEv"
.LASF855:
	.string	"_ZNSt6vectorIiSaIiEEC2EmRKiRKS0_"
.LASF852:
	.string	"__pf"
.LASF642:
	.string	"__int_least32_t"
.LASF247:
	.string	"literals"
.LASF232:
	.string	"_Rep1"
.LASF86:
	.string	"_ZNSt15__exception_ptr13exception_ptrD4Ev"
.LASF294:
	.string	"get_allocator"
.LASF204:
	.string	"system_clock"
.LASF592:
	.string	"_ZN9__gnu_cxx13new_allocatorIiE8allocateEmPKv"
.LASF146:
	.string	"istream"
.LASF227:
	.string	"_ToDur"
.LASF694:
	.string	"p_cs_precedes"
.LASF794:
	.string	"_ZN6__pstl9execution2v116sequenced_policy19__allow_unsequencedEv"
.LASF548:
	.string	"tm_year"
.LASF888:
	.string	"~_Vector_impl"
.LASF288:
	.string	"_ZNSt12_Vector_baseIiSaIiEE12_Vector_implC4EOS0_"
.LASF53:
	.string	"short unsigned int"
.LASF614:
	.string	"__normal_iterator<int*, std::vector<int, std::allocator<int> > >"
.LASF796:
	.string	"__allow_parallel"
.LASF70:
	.string	"exception_ptr"
.LASF818:
	.string	"gmtime"
.LASF839:
	.string	"_ZNSt12_Vector_baseIiSaIiEE17_Vector_impl_dataC2Ev"
.LASF590:
	.string	"const_pointer"
.LASF768:
	.string	"fread"
.LASF659:
	.string	"uint32_t"
.LASF581:
	.string	"__ops"
.LASF352:
	.string	"_ZNKSt6vectorIiSaIiEE3endEv"
.LASF157:
	.string	"__detail"
.LASF28:
	.string	"_IO_write_ptr"
.LASF623:
	.string	"__int128 unsigned"
.LASF173:
	.string	"_ZNSt6chrono8durationIlSt5ratioILl1ELl1000000000EEEaSERKS3_"
.LASF409:
	.string	"_ZNSt6vectorIiSaIiEE6insertEN9__gnu_cxx17__normal_iteratorIPKiS1_EESt16initializer_listIiE"
.LASF481:
	.string	"_ZNSt12_Vector_baseIiSaIiEE17_Vector_impl_data12_M_swap_dataERS2_"
.LASF815:
	.string	"time"
.LASF791:
	.string	"sequenced_policy"
.LASF280:
	.string	"_ZNSt12_Vector_baseIiSaIiEE17_Vector_impl_dataC4EOS2_"
.LASF130:
	.string	"_ZNSt8ios_base4InitC4Ev"
.LASF634:
	.string	"__int32_t"
.LASF343:
	.string	"_ZNSt6vectorIiSaIiEEaSESt16initializer_listIiE"
.LASF656:
	.string	"int64_t"
.LASF44:
	.string	"_offset"
.LASF300:
	.string	"_ZNSt12_Vector_baseIiSaIiEEC4EmRKS0_"
.LASF845:
	.string	"__in_chrg"
.LASF90:
	.string	"_ZNKSt15__exception_ptr13exception_ptr20__cxa_exception_typeEv"
.LASF74:
	.string	"_ZNSt15__exception_ptr13exception_ptr9_M_addrefEv"
.LASF516:
	.string	"getwc"
.LASF193:
	.string	"_ZNSt6chrono8durationIlSt5ratioILl1ELl1000000000EEEdVERKl"
.LASF786:
	.string	"iswctype"
.LASF651:
	.string	"__time_t"
.LASF112:
	.string	"assign"
.LASF889:
	.string	"_ZNSt12_Vector_baseIiSaIiEE12_Vector_implD4Ev"
.LASF664:
	.string	"int_least64_t"
.LASF192:
	.string	"operator/="
.LASF897:
	.string	"_Z3fibi"
.LASF304:
	.string	"_ZNSt12_Vector_baseIiSaIiEEC4ERKS0_OS1_"
.LASF324:
	.string	"_ZNSt6vectorIiSaIiEE14_S_do_relocateEPiS2_S2_RS0_St17integral_constantIbLb0EE"
.LASF572:
	.string	"wprintf"
.LASF474:
	.string	"_OutputIterator"
.LASF398:
	.string	"data"
.LASF809:
	.string	"_ZN6__pstl9execution2v118unsequenced_policy16__allow_parallelEv"
.LASF122:
	.string	"_ZNSt11char_traitsIcE7not_eofERKi"
.LASF763:
	.string	"fflush"
.LASF844:
	.string	"__allocmax"
.LASF358:
	.string	"rend"
.LASF711:
	.string	"tv_sec"
.LASF453:
	.string	"_ZNKSt16initializer_listIiE4sizeEv"
.LASF49:
	.string	"__pad5"
.LASF197:
	.string	"_ZNSt6chrono8durationIlSt5ratioILl1ELl1000000000EEE3maxEv"
.LASF310:
	.string	"_M_deallocate"
.LASF509:
	.string	"wchar_t"
.LASF203:
	.string	"typedef __va_list_tag __va_list_tag"
.LASF891:
	.string	"_ZN9__gnu_cxx3divExx"
.LASF584:
	.string	"_ZN9__gnu_cxx13new_allocatorIiEC4Ev"
.LASF152:
	.string	"_Size"
.LASF266:
	.string	"const_void_pointer"
.LASF169:
	.string	"_ZNSt6chrono8durationIlSt5ratioILl1ELl1000000000EEEC4Ev"
.LASF240:
	.string	"duration_cast<std::chrono::duration<long int, std::ratio<1, 1000000000> >, long int, std::ratio<1, 1000000000> >"
.LASF158:
	.string	"placeholders"
.LASF287:
	.string	"_ZNSt12_Vector_baseIiSaIiEE12_Vector_implC4EOS2_"
.LASF769:
	.string	"freopen"
.LASF264:
	.string	"size_type"
.LASF890:
	.string	"_ZNKSt16initializer_listIiE3endEv"
	.section	.debug_line_str,"MS",@progbits,1
.LASF0:
	.string	"/home/zhuo/git/dp_study/src/main.cpp"
.LASF1:
	.string	"/home/zhuo/git/dp_study"
	.hidden	DW.ref.__gxx_personality_v0
	.weak	DW.ref.__gxx_personality_v0
	.section	.data.rel.local.DW.ref.__gxx_personality_v0,"awG",@progbits,DW.ref.__gxx_personality_v0,comdat
	.align 8
	.type	DW.ref.__gxx_personality_v0, @object
	.size	DW.ref.__gxx_personality_v0, 8
DW.ref.__gxx_personality_v0:
	.quad	__gxx_personality_v0
	.hidden	__dso_handle
	.ident	"GCC: (Ubuntu 11.4.0-1ubuntu1~22.04.2) 11.4.0"
	.section	.note.GNU-stack,"",@progbits
	.section	.note.gnu.property,"a"
	.align 8
	.long	1f - 0f
	.long	4f - 1f
	.long	5
0:
	.string	"GNU"
1:
	.align 8
	.long	0xc0000002
	.long	3f - 2f
2:
	.long	0x3
3:
	.align 8
4:
